ccopy_reg
_reconstructor
p0
(csklearn.pipeline
Pipeline
p1
c__builtin__
object
p2
Ntp3
Rp4
(dp5
S'steps'
p6
(lp7
(S'imputer'
p8
g0
(csklearn.preprocessing.imputation
Imputer
p9
g2
Ntp10
Rp11
(dp12
S'copy'
p13
I01
sS'strategy'
p14
S'mean'
p15
sS'axis'
p16
I0
sS'verbose'
p17
I0
sS'missing_values'
p18
S'NaN'
p19
sbtp20
a(S'standardscaler'
p21
g0
(csklearn.preprocessing.data
StandardScaler
p22
g2
Ntp23
Rp24
(dp25
g13
I01
sS'with_mean'
p26
I01
sS'with_std'
p27
I01
sbtp28
a(S'selectkbest'
p29
g0
(csklearn.feature_selection.univariate_selection
SelectKBest
p30
g2
Ntp31
Rp32
(dp33
S'k'
p34
I7
sS'score_func'
p35
csklearn.feature_selection.univariate_selection
f_classif
p36
sbtp37
a(S'gaussiannb'
p38
g0
(csklearn.naive_bayes
GaussianNB
p39
g2
Ntp40
Rp41
tp42
asS'named_steps'
p43
(dp44
g29
g32
sg8
g11
sg21
g24
sg38
g41
ssb.