(dp0
S'METTS MARK'
p1
(dp2
S'to_messages'
p3
I807
sS'from_poi_norm'
p4
F1.3103448275862069
sS'deferral_payments'
p5
S'NaN'
p6
sS'restricted_stock_deferred_fill0'
p7
I0
sS'expenses_fill0'
p8
I94299
sS'expenses'
p9
I94299
sS'salary_fill0'
p10
I365788
sS'exercised_stock_options_fill0'
p11
I0
sS'poi'
p12
I00
sS'deferred_income'
p13
g6
sS'email_address'
p14
S'mark.metts@enron.com'
p15
sS'long_term_incentive'
p16
g6
sS'email_info_available'
p17
I1
sS'restricted_stock_deferred'
p18
g6
sS'shared_receipt_with_poi'
p19
I702
sS'loan_advances'
p20
g6
sS'from_messages'
p21
I29
sS'other'
p22
I1740
sS'total_stock_value_fill0'
p23
I585062
sS'director_fees'
p24
g6
sS'to_poi_norm'
p25
F0.0012391573729863693
sS'bonus'
p26
I600000
sS'total_payments_fill0'
p27
I1061827
sS'total_stock_value'
p28
I585062
sS'from_poi_to_this_person'
p29
I38
sS'deferred_income_fill0'
p30
I0
sS'from_this_person_to_poi'
p31
I1
sS'deferral_payments_fill0'
p32
I0
sS'restricted_stock_fill0'
p33
I585062
sS'restricted_stock'
p34
I585062
sS'salary'
p35
I365788
sS'shared_poi_norm'
p36
F0.8698884758364313
sS'other_fill0'
p37
I1740
sS'total_payments'
p38
I1061827
sS'long_term_incentive_fill0'
p39
I0
sS'loan_advances_fill0'
p40
I0
sS'exercised_stock_options'
p41
g6
sS'bonus_fill0'
p42
I600000
sS'director_fees_fill0'
p43
I0
ssS'BAXTER JOHN C'
p44
(dp45
g3
g6
sg4
Fnan
sg5
I1295738
sS'restricted_stock_deferred_fill0'
p46
I0
sS'expenses_fill0'
p47
I11200
sg9
I11200
sS'salary_fill0'
p48
I267102
sS'exercised_stock_options_fill0'
p49
I6680544
sg12
I00
sg13
I-1386055
sg14
g6
sg16
I1586055
sg17
I0
sg18
g6
sg19
g6
sg20
g6
sg21
g6
sg22
I2660303
sS'total_stock_value_fill0'
p50
I10623258
sg24
g6
sg25
Fnan
sg26
I1200000
sS'total_payments_fill0'
p51
I5634343
sg28
I10623258
sg29
g6
sS'deferred_income_fill0'
p52
I-1386055
sg31
g6
sS'deferral_payments_fill0'
p53
I1295738
sS'restricted_stock_fill0'
p54
I3942714
sg34
I3942714
sg35
I267102
sg36
Fnan
sS'other_fill0'
p55
I2660303
sg38
I5634343
sS'long_term_incentive_fill0'
p56
I1586055
sS'loan_advances_fill0'
p57
I0
sg41
I6680544
sS'bonus_fill0'
p58
I1200000
sS'director_fees_fill0'
p59
I0
ssS'ELLIOTT STEVEN'
p60
(dp61
g3
g6
sg4
Fnan
sg5
g6
sS'restricted_stock_deferred_fill0'
p62
I0
sS'expenses_fill0'
p63
I78552
sg9
I78552
sS'salary_fill0'
p64
I170941
sS'exercised_stock_options_fill0'
p65
I4890344
sg12
I00
sg13
I-400729
sg14
S'steven.elliott@enron.com'
p66
sg16
g6
sg17
I0
sg18
g6
sg19
g6
sg20
g6
sg21
g6
sg22
I12961
sS'total_stock_value_fill0'
p67
I6678735
sg24
g6
sg25
Fnan
sg26
I350000
sS'total_payments_fill0'
p68
I211725
sg28
I6678735
sg29
g6
sS'deferred_income_fill0'
p69
I-400729
sg31
g6
sS'deferral_payments_fill0'
p70
I0
sS'restricted_stock_fill0'
p71
I1788391
sg34
I1788391
sg35
I170941
sg36
Fnan
sS'other_fill0'
p72
I12961
sg38
I211725
sS'long_term_incentive_fill0'
p73
I0
sS'loan_advances_fill0'
p74
I0
sg41
I4890344
sS'bonus_fill0'
p75
I350000
sS'director_fees_fill0'
p76
I0
ssS'CORDES WILLIAM R'
p77
(dp78
g3
I764
sg4
F0.8333333333333334
sg5
g6
sS'restricted_stock_deferred_fill0'
p79
I0
sS'expenses_fill0'
p80
I0
sg9
g6
sS'salary_fill0'
p81
I0
sS'exercised_stock_options_fill0'
p82
I651850
sg12
I00
sg13
g6
sg14
S'bill.cordes@enron.com'
p83
sg16
g6
sg17
I1
sg18
g6
sg19
I58
sg20
g6
sg21
I12
sg22
g6
sS'total_stock_value_fill0'
p84
I1038185
sg24
g6
sg25
F0.0
sg26
g6
sS'total_payments_fill0'
p85
I0
sg28
I1038185
sg29
I10
sS'deferred_income_fill0'
p86
I0
sg31
I0
sS'deferral_payments_fill0'
p87
I0
sS'restricted_stock_fill0'
p88
I386335
sg34
I386335
sg35
g6
sg36
F0.07591623036649214
sS'other_fill0'
p89
I0
sg38
g6
sS'long_term_incentive_fill0'
p90
I0
sS'loan_advances_fill0'
p91
I0
sg41
I651850
sS'bonus_fill0'
p92
I0
sS'director_fees_fill0'
p93
I0
ssS'HANNON KEVIN P'
p94
(dp95
g3
I1045
sg4
F1.0
sg5
g6
sS'restricted_stock_deferred_fill0'
p96
I0
sS'expenses_fill0'
p97
I34039
sg9
I34039
sS'salary_fill0'
p98
I243293
sS'exercised_stock_options_fill0'
p99
I5538001
sg12
I01
sg13
I-3117011
sg14
S'kevin.hannon@enron.com'
p100
sg16
I1617011
sg17
I1
sg18
g6
sg19
I1035
sg20
g6
sg21
I32
sg22
I11350
sS'total_stock_value_fill0'
p101
I6391065
sg24
g6
sg25
F0.020095693779904306
sg26
I1500000
sS'total_payments_fill0'
p102
I288682
sg28
I6391065
sg29
I32
sS'deferred_income_fill0'
p103
I-3117011
sg31
I21
sS'deferral_payments_fill0'
p104
I0
sS'restricted_stock_fill0'
p105
I853064
sg34
I853064
sg35
I243293
sg36
F0.9904306220095693
sS'other_fill0'
p106
I11350
sg38
I288682
sS'long_term_incentive_fill0'
p107
I1617011
sS'loan_advances_fill0'
p108
I0
sg41
I5538001
sS'bonus_fill0'
p109
I1500000
sS'director_fees_fill0'
p110
I0
ssS'MORDAUNT KRISTINA M'
p111
(dp112
g3
g6
sg4
Fnan
sg5
g6
sS'restricted_stock_deferred_fill0'
p113
I0
sS'expenses_fill0'
p114
I35018
sg9
I35018
sS'salary_fill0'
p115
I267093
sS'exercised_stock_options_fill0'
p116
I0
sg12
I00
sg13
g6
sg14
S'kristina.mordaunt@enron.com'
p117
sg16
g6
sg17
I0
sg18
g6
sg19
g6
sg20
g6
sg21
g6
sg22
I1411
sS'total_stock_value_fill0'
p118
I208510
sg24
g6
sg25
Fnan
sg26
I325000
sS'total_payments_fill0'
p119
I628522
sg28
I208510
sg29
g6
sS'deferred_income_fill0'
p120
I0
sg31
g6
sS'deferral_payments_fill0'
p121
I0
sS'restricted_stock_fill0'
p122
I208510
sg34
I208510
sg35
I267093
sg36
Fnan
sS'other_fill0'
p123
I1411
sg38
I628522
sS'long_term_incentive_fill0'
p124
I0
sS'loan_advances_fill0'
p125
I0
sg41
g6
sS'bonus_fill0'
p126
I325000
sS'director_fees_fill0'
p127
I0
ssS'MEYER ROCKFORD G'
p128
(dp129
g3
I232
sg4
F0.0
sg5
I1848227
sS'restricted_stock_deferred_fill0'
p130
I0
sS'expenses_fill0'
p131
I0
sg9
g6
sS'salary_fill0'
p132
I0
sS'exercised_stock_options_fill0'
p133
I493489
sg12
I00
sg13
g6
sg14
S'rockford.meyer@enron.com'
p134
sg16
g6
sg17
I1
sg18
g6
sg19
I22
sg20
g6
sg21
I28
sg22
g6
sS'total_stock_value_fill0'
p135
I955873
sg24
g6
sg25
F0.0
sg26
g6
sS'total_payments_fill0'
p136
I1848227
sg28
I955873
sg29
I0
sS'deferred_income_fill0'
p137
I0
sg31
I0
sS'deferral_payments_fill0'
p138
I1848227
sS'restricted_stock_fill0'
p139
I462384
sg34
I462384
sg35
g6
sg36
F0.09482758620689655
sS'other_fill0'
p140
I0
sg38
I1848227
sS'long_term_incentive_fill0'
p141
I0
sS'loan_advances_fill0'
p142
I0
sg41
I493489
sS'bonus_fill0'
p143
I0
sS'director_fees_fill0'
p144
I0
ssS'MCMAHON JEFFREY'
p145
(dp146
g3
I2355
sg4
F1.2083333333333333
sg5
g6
sS'restricted_stock_deferred_fill0'
p147
I0
sS'expenses_fill0'
p148
I137108
sg9
I137108
sS'salary_fill0'
p149
I370448
sS'exercised_stock_options_fill0'
p150
I1104054
sg12
I00
sg13
g6
sg14
S'jeffrey.mcmahon@enron.com'
p151
sg16
I694862
sg17
I1
sg18
g6
sg19
I2228
sg20
g6
sg21
I48
sg22
I297353
sS'total_stock_value_fill0'
p152
I1662855
sg24
g6
sg25
F0.011040339702760084
sg26
I2600000
sS'total_payments_fill0'
p153
I4099771
sg28
I1662855
sg29
I58
sS'deferred_income_fill0'
p154
I0
sg31
I26
sS'deferral_payments_fill0'
p155
I0
sS'restricted_stock_fill0'
p156
I558801
sg34
I558801
sg35
I370448
sg36
F0.9460721868365181
sS'other_fill0'
p157
I297353
sg38
I4099771
sS'long_term_incentive_fill0'
p158
I694862
sS'loan_advances_fill0'
p159
I0
sg41
I1104054
sS'bonus_fill0'
p160
I2600000
sS'director_fees_fill0'
p161
I0
ssS'HORTON STANLEY C'
p162
(dp163
g3
I2350
sg4
F0.04100652376514446
sg5
I3131860
sS'restricted_stock_deferred_fill0'
p164
I0
sS'expenses_fill0'
p165
I0
sg9
g6
sS'salary_fill0'
p166
I0
sS'exercised_stock_options_fill0'
p167
I5210569
sg12
I00
sg13
g6
sg14
S'stanley.horton@enron.com'
p168
sg16
g6
sg17
I1
sg18
g6
sg19
I1074
sg20
g6
sg21
I1073
sg22
g6
sS'total_stock_value_fill0'
p169
I7256648
sg24
g6
sg25
F0.006382978723404255
sg26
g6
sS'total_payments_fill0'
p170
I3131860
sg28
I7256648
sg29
I44
sS'deferred_income_fill0'
p171
I0
sg31
I15
sS'deferral_payments_fill0'
p172
I3131860
sS'restricted_stock_fill0'
p173
I2046079
sg34
I2046079
sg35
g6
sg36
F0.4570212765957447
sS'other_fill0'
p174
I0
sg38
I3131860
sS'long_term_incentive_fill0'
p175
I0
sS'loan_advances_fill0'
p176
I0
sg41
I5210569
sS'bonus_fill0'
p177
I0
sS'director_fees_fill0'
p178
I0
ssS'PIPER GREGORY F'
p179
(dp180
g3
I1238
sg4
F0.2747747747747748
sg5
I1130036
sS'restricted_stock_deferred_fill0'
p181
I-409554
sS'expenses_fill0'
p182
I43057
sg9
I43057
sS'salary_fill0'
p183
I197091
sS'exercised_stock_options_fill0'
p184
I880290
sg12
I00
sg13
I-33333
sg14
S'greg.piper@enron.com'
p185
sg16
g6
sg17
I1
sg18
I-409554
sg19
I742
sg20
g6
sg21
I222
sg22
I778
sS'total_stock_value_fill0'
p186
I880290
sg24
g6
sg25
F0.03877221324717286
sg26
I400000
sS'total_payments_fill0'
p187
I1737629
sg28
I880290
sg29
I61
sS'deferred_income_fill0'
p188
I-33333
sg31
I48
sS'deferral_payments_fill0'
p189
I1130036
sS'restricted_stock_fill0'
p190
I409554
sg34
I409554
sg35
I197091
sg36
F0.5993537964458805
sS'other_fill0'
p191
I778
sg38
I1737629
sS'long_term_incentive_fill0'
p192
I0
sS'loan_advances_fill0'
p193
I0
sg41
I880290
sS'bonus_fill0'
p194
I400000
sS'director_fees_fill0'
p195
I0
ssS'HUMPHREY GENE E'
p196
(dp197
g3
I128
sg4
F0.5882352941176471
sg5
I2964506
sS'restricted_stock_deferred_fill0'
p198
I0
sS'expenses_fill0'
p199
I4994
sg9
I4994
sS'salary_fill0'
p200
I130724
sS'exercised_stock_options_fill0'
p201
I2282768
sg12
I00
sg13
g6
sg14
S'gene.humphrey@enron.com'
p202
sg16
g6
sg17
I1
sg18
g6
sg19
I119
sg20
g6
sg21
I17
sg22
g6
sS'total_stock_value_fill0'
p203
I2282768
sg24
g6
sg25
F0.1328125
sg26
g6
sS'total_payments_fill0'
p204
I3100224
sg28
I2282768
sg29
I10
sS'deferred_income_fill0'
p205
I0
sg31
I17
sS'deferral_payments_fill0'
p206
I2964506
sS'restricted_stock_fill0'
p207
I0
sg34
g6
sg35
I130724
sg36
F0.9296875
sS'other_fill0'
p208
I0
sg38
I3100224
sS'long_term_incentive_fill0'
p209
I0
sS'loan_advances_fill0'
p210
I0
sg41
I2282768
sS'bonus_fill0'
p211
I0
sS'director_fees_fill0'
p212
I0
ssS'UMANOFF ADAM S'
p213
(dp214
g3
I111
sg4
F0.6666666666666666
sg5
g6
sS'restricted_stock_deferred_fill0'
p215
I0
sS'expenses_fill0'
p216
I53122
sg9
I53122
sS'salary_fill0'
p217
I288589
sS'exercised_stock_options_fill0'
p218
I0
sg12
I00
sg13
g6
sg14
S'adam.umanoff@enron.com'
p219
sg16
g6
sg17
I1
sg18
g6
sg19
I41
sg20
g6
sg21
I18
sg22
g6
sS'total_stock_value_fill0'
p220
I0
sg24
g6
sg25
F0.0
sg26
I788750
sS'total_payments_fill0'
p221
I1130461
sg28
g6
sg29
I12
sS'deferred_income_fill0'
p222
I0
sg31
I0
sS'deferral_payments_fill0'
p223
I0
sS'restricted_stock_fill0'
p224
I0
sg34
g6
sg35
I288589
sg36
F0.36936936936936937
sS'other_fill0'
p225
I0
sg38
I1130461
sS'long_term_incentive_fill0'
p226
I0
sS'loan_advances_fill0'
p227
I0
sg41
g6
sS'bonus_fill0'
p228
I788750
sS'director_fees_fill0'
p229
I0
ssS'BLACHMAN JEREMY M'
p230
(dp231
g3
I2475
sg4
F1.7857142857142858
sg5
g6
sS'restricted_stock_deferred_fill0'
p232
I0
sS'expenses_fill0'
p233
I84208
sg9
I84208
sS'salary_fill0'
p234
I248546
sS'exercised_stock_options_fill0'
p235
I765313
sg12
I00
sg13
g6
sg14
S'jeremy.blachman@enron.com'
p236
sg16
I831809
sg17
I1
sg18
g6
sg19
I2326
sg20
g6
sg21
I14
sg22
I272
sS'total_stock_value_fill0'
p237
I954354
sg24
g6
sg25
F0.0008080808080808081
sg26
I850000
sS'total_payments_fill0'
p238
I2014835
sg28
I954354
sg29
I25
sS'deferred_income_fill0'
p239
I0
sg31
I2
sS'deferral_payments_fill0'
p240
I0
sS'restricted_stock_fill0'
p241
I189041
sg34
I189041
sg35
I248546
sg36
F0.9397979797979797
sS'other_fill0'
p242
I272
sg38
I2014835
sS'long_term_incentive_fill0'
p243
I831809
sS'loan_advances_fill0'
p244
I0
sg41
I765313
sS'bonus_fill0'
p245
I850000
sS'director_fees_fill0'
p246
I0
ssS'SUNDE MARTIN'
p247
(dp248
g3
I2647
sg4
F0.9736842105263158
sg5
g6
sS'restricted_stock_deferred_fill0'
p249
I0
sS'expenses_fill0'
p250
I0
sg9
g6
sS'salary_fill0'
p251
I257486
sS'exercised_stock_options_fill0'
p252
I0
sg12
I00
sg13
g6
sg14
S'marty.sunde@enron.com'
p253
sg16
I476451
sg17
I1
sg18
g6
sg19
I2565
sg20
g6
sg21
I38
sg22
I111122
sS'total_stock_value_fill0'
p254
I698920
sg24
g6
sg25
F0.004911220249338874
sg26
I700000
sS'total_payments_fill0'
p255
I1545059
sg28
I698920
sg29
I37
sS'deferred_income_fill0'
p256
I0
sg31
I13
sS'deferral_payments_fill0'
p257
I0
sS'restricted_stock_fill0'
p258
I698920
sg34
I698920
sg35
I257486
sg36
F0.9690215338118625
sS'other_fill0'
p259
I111122
sg38
I1545059
sS'long_term_incentive_fill0'
p260
I476451
sS'loan_advances_fill0'
p261
I0
sg41
g6
sS'bonus_fill0'
p262
I700000
sS'director_fees_fill0'
p263
I0
ssS'GIBBS DANA R'
p264
(dp265
g3
I169
sg4
F0.0
sg5
I504610
sS'restricted_stock_deferred_fill0'
p266
I0
sS'expenses_fill0'
p267
I0
sg9
g6
sS'salary_fill0'
p268
I0
sS'exercised_stock_options_fill0'
p269
I2218275
sg12
I00
sg13
g6
sg14
S'dana.gibbs@enron.com'
p270
sg16
I461912
sg17
I1
sg18
g6
sg19
I23
sg20
g6
sg21
I12
sg22
g6
sS'total_stock_value_fill0'
p271
I2218275
sg24
g6
sg25
F0.0
sg26
g6
sS'total_payments_fill0'
p272
I966522
sg28
I2218275
sg29
I0
sS'deferred_income_fill0'
p273
I0
sg31
I0
sS'deferral_payments_fill0'
p274
I504610
sS'restricted_stock_fill0'
p275
I0
sg34
g6
sg35
g6
sg36
F0.13609467455621302
sS'other_fill0'
p276
I0
sg38
I966522
sS'long_term_incentive_fill0'
p277
I461912
sS'loan_advances_fill0'
p278
I0
sg41
I2218275
sS'bonus_fill0'
p279
I0
sS'director_fees_fill0'
p280
I0
ssS'LOWRY CHARLES P'
p281
(dp282
g3
g6
sg4
Fnan
sg5
g6
sS'restricted_stock_deferred_fill0'
p283
I-153686
sS'expenses_fill0'
p284
I0
sg9
g6
sS'salary_fill0'
p285
I0
sS'exercised_stock_options_fill0'
p286
I372205
sg12
I00
sg13
g6
sg14
g6
sg16
g6
sg17
I0
sg18
I-153686
sg19
g6
sg20
g6
sg21
g6
sg22
g6
sS'total_stock_value_fill0'
p287
I372205
sg24
g6
sg25
Fnan
sg26
g6
sS'total_payments_fill0'
p288
I0
sg28
I372205
sg29
g6
sS'deferred_income_fill0'
p289
I0
sg31
g6
sS'deferral_payments_fill0'
p290
I0
sS'restricted_stock_fill0'
p291
I153686
sg34
I153686
sg35
g6
sg36
Fnan
sS'other_fill0'
p292
I0
sg38
g6
sS'long_term_incentive_fill0'
p293
I0
sS'loan_advances_fill0'
p294
I0
sg41
I372205
sS'bonus_fill0'
p295
I0
sS'director_fees_fill0'
p296
I0
ssS'COLWELL WESLEY'
p297
(dp298
g3
I1758
sg4
F6.0
sg5
I27610
sS'restricted_stock_deferred_fill0'
p299
I0
sS'expenses_fill0'
p300
I16514
sg9
I16514
sS'salary_fill0'
p301
I288542
sS'exercised_stock_options_fill0'
p302
I0
sg12
I01
sg13
I-144062
sg14
S'wes.colwell@enron.com'
p303
sg16
g6
sg17
I1
sg18
g6
sg19
I1132
sg20
g6
sg21
I40
sg22
I101740
sS'total_stock_value_fill0'
p304
I698242
sg24
g6
sg25
F0.006257110352673493
sg26
I1200000
sS'total_payments_fill0'
p305
I1490344
sg28
I698242
sg29
I240
sS'deferred_income_fill0'
p306
I-144062
sg31
I11
sS'deferral_payments_fill0'
p307
I27610
sS'restricted_stock_fill0'
p308
I698242
sg34
I698242
sg35
I288542
sg36
F0.6439135381114903
sS'other_fill0'
p309
I101740
sg38
I1490344
sS'long_term_incentive_fill0'
p310
I0
sS'loan_advances_fill0'
p311
I0
sg41
g6
sS'bonus_fill0'
p312
I1200000
sS'director_fees_fill0'
p313
I0
ssS'MULLER MARK S'
p314
(dp315
g3
I136
sg4
F0.75
sg5
I842924
sS'restricted_stock_deferred_fill0'
p316
I0
sS'expenses_fill0'
p317
I0
sg9
g6
sS'salary_fill0'
p318
I251654
sS'exercised_stock_options_fill0'
p319
I1056320
sg12
I00
sg13
I-719000
sg14
S's..muller@enron.com'
p320
sg16
I1725545
sg17
I1
sg18
g6
sg19
I114
sg20
g6
sg21
I16
sg22
I947
sS'total_stock_value_fill0'
p321
I1416848
sg24
g6
sg25
F0.0
sg26
I1100000
sS'total_payments_fill0'
p322
I3202070
sg28
I1416848
sg29
I12
sS'deferred_income_fill0'
p323
I-719000
sg31
I0
sS'deferral_payments_fill0'
p324
I842924
sS'restricted_stock_fill0'
p325
I360528
sg34
I360528
sg35
I251654
sg36
F0.8382352941176471
sS'other_fill0'
p326
I947
sg38
I3202070
sS'long_term_incentive_fill0'
p327
I1725545
sS'loan_advances_fill0'
p328
I0
sg41
I1056320
sS'bonus_fill0'
p329
I1100000
sS'director_fees_fill0'
p330
I0
ssS'JACKSON CHARLENE R'
p331
(dp332
g3
I258
sg4
F0.44642857142857145
sg5
g6
sS'restricted_stock_deferred_fill0'
p333
I0
sS'expenses_fill0'
p334
I10181
sg9
I10181
sS'salary_fill0'
p335
I288558
sS'exercised_stock_options_fill0'
p336
I185063
sg12
I00
sg13
g6
sg14
S'charlene.jackson@enron.com'
p337
sg16
g6
sg17
I1
sg18
g6
sg19
I117
sg20
g6
sg21
I56
sg22
I2435
sS'total_stock_value_fill0'
p338
I725735
sg24
g6
sg25
F0.07364341085271318
sg26
I250000
sS'total_payments_fill0'
p339
I551174
sg28
I725735
sg29
I25
sS'deferred_income_fill0'
p340
I0
sg31
I19
sS'deferral_payments_fill0'
p341
I0
sS'restricted_stock_fill0'
p342
I540672
sg34
I540672
sg35
I288558
sg36
F0.45348837209302323
sS'other_fill0'
p343
I2435
sg38
I551174
sS'long_term_incentive_fill0'
p344
I0
sS'loan_advances_fill0'
p345
I0
sg41
I185063
sS'bonus_fill0'
p346
I250000
sS'director_fees_fill0'
p347
I0
ssS'WESTFAHL RICHARD K'
p348
(dp349
g3
g6
sg4
Fnan
sg5
g6
sS'restricted_stock_deferred_fill0'
p350
I0
sS'expenses_fill0'
p351
I51870
sg9
I51870
sS'salary_fill0'
p352
I63744
sS'exercised_stock_options_fill0'
p353
I0
sg12
I00
sg13
I-10800
sg14
S'dick.westfahl@enron.com'
p354
sg16
I256191
sg17
I0
sg18
g6
sg19
g6
sg20
g6
sg21
g6
sg22
I401130
sS'total_stock_value_fill0'
p355
I384930
sg24
g6
sg25
Fnan
sg26
g6
sS'total_payments_fill0'
p356
I762135
sg28
I384930
sg29
g6
sS'deferred_income_fill0'
p357
I-10800
sg31
g6
sS'deferral_payments_fill0'
p358
I0
sS'restricted_stock_fill0'
p359
I384930
sg34
I384930
sg35
I63744
sg36
Fnan
sS'other_fill0'
p360
I401130
sg38
I762135
sS'long_term_incentive_fill0'
p361
I256191
sS'loan_advances_fill0'
p362
I0
sg41
g6
sS'bonus_fill0'
p363
I0
sS'director_fees_fill0'
p364
I0
ssS'WALTERS GARETH W'
p365
(dp366
g3
g6
sg4
Fnan
sg5
I53625
sS'restricted_stock_deferred_fill0'
p367
I0
sS'expenses_fill0'
p368
I33785
sg9
I33785
sS'salary_fill0'
p369
I0
sS'exercised_stock_options_fill0'
p370
I1030329
sg12
I00
sg13
g6
sg14
g6
sg16
g6
sg17
I0
sg18
g6
sg19
g6
sg20
g6
sg21
g6
sg22
g6
sS'total_stock_value_fill0'
p371
I1030329
sg24
g6
sg25
Fnan
sg26
g6
sS'total_payments_fill0'
p372
I87410
sg28
I1030329
sg29
g6
sS'deferred_income_fill0'
p373
I0
sg31
g6
sS'deferral_payments_fill0'
p374
I53625
sS'restricted_stock_fill0'
p375
I0
sg34
g6
sg35
g6
sg36
Fnan
sS'other_fill0'
p376
I0
sg38
I87410
sS'long_term_incentive_fill0'
p377
I0
sS'loan_advances_fill0'
p378
I0
sg41
I1030329
sS'bonus_fill0'
p379
I0
sS'director_fees_fill0'
p380
I0
ssS'WALLS JR ROBERT H'
p381
(dp382
g3
I671
sg4
F0.11643835616438356
sg5
g6
sS'restricted_stock_deferred_fill0'
p383
I0
sS'expenses_fill0'
p384
I50936
sg9
I50936
sS'salary_fill0'
p385
I357091
sS'exercised_stock_options_fill0'
p386
I4346544
sg12
I00
sg13
g6
sg14
S'rob.walls@enron.com'
p387
sg16
I540751
sg17
I1
sg18
g6
sg19
I215
sg20
g6
sg21
I146
sg22
I2
sS'total_stock_value_fill0'
p388
I5898997
sg24
g6
sg25
F0.0
sg26
I850000
sS'total_payments_fill0'
p389
I1798780
sg28
I5898997
sg29
I17
sS'deferred_income_fill0'
p390
I0
sg31
I0
sS'deferral_payments_fill0'
p391
I0
sS'restricted_stock_fill0'
p392
I1552453
sg34
I1552453
sg35
I357091
sg36
F0.3204172876304024
sS'other_fill0'
p393
I2
sg38
I1798780
sS'long_term_incentive_fill0'
p394
I540751
sS'loan_advances_fill0'
p395
I0
sg41
I4346544
sS'bonus_fill0'
p396
I850000
sS'director_fees_fill0'
p397
I0
ssS'KITCHEN LOUISE'
p398
(dp399
g3
I8305
sg4
F0.14525462962962962
sg5
g6
sS'restricted_stock_deferred_fill0'
p400
I0
sS'expenses_fill0'
p401
I5774
sg9
I5774
sS'salary_fill0'
p402
I271442
sS'exercised_stock_options_fill0'
p403
I81042
sg12
I00
sg13
g6
sg14
S'louise.kitchen@enron.com'
p404
sg16
g6
sg17
I1
sg18
g6
sg19
I3669
sg20
g6
sg21
I1728
sg22
I93925
sS'total_stock_value_fill0'
p405
I547143
sg24
g6
sg25
F0.023359422034918725
sg26
I3100000
sS'total_payments_fill0'
p406
I3471141
sg28
I547143
sg29
I251
sS'deferred_income_fill0'
p407
I0
sg31
I194
sS'deferral_payments_fill0'
p408
I0
sS'restricted_stock_fill0'
p409
I466101
sg34
I466101
sg35
I271442
sg36
F0.441782059000602
sS'other_fill0'
p410
I93925
sg38
I3471141
sS'long_term_incentive_fill0'
p411
I0
sS'loan_advances_fill0'
p412
I0
sg41
I81042
sS'bonus_fill0'
p413
I3100000
sS'director_fees_fill0'
p414
I0
ssS'CHAN RONNIE'
p415
(dp416
g3
g6
sg4
Fnan
sg5
g6
sS'restricted_stock_deferred_fill0'
p417
I-32460
sS'expenses_fill0'
p418
I0
sg9
g6
sS'salary_fill0'
p419
I0
sS'exercised_stock_options_fill0'
p420
I0
sg12
I00
sg13
I-98784
sg14
g6
sg16
g6
sg17
I0
sg18
I-32460
sg19
g6
sg20
g6
sg21
g6
sg22
g6
sS'total_stock_value_fill0'
p421
I0
sg24
I98784
sg25
Fnan
sg26
g6
sS'total_payments_fill0'
p422
I0
sg28
g6
sg29
g6
sS'deferred_income_fill0'
p423
I-98784
sg31
g6
sS'deferral_payments_fill0'
p424
I0
sS'restricted_stock_fill0'
p425
I32460
sg34
I32460
sg35
g6
sg36
Fnan
sS'other_fill0'
p426
I0
sg38
g6
sS'long_term_incentive_fill0'
p427
I0
sS'loan_advances_fill0'
p428
I0
sg41
g6
sS'bonus_fill0'
p429
I0
sS'director_fees_fill0'
p430
I98784
ssS'BELFER ROBERT'
p431
(dp432
g3
g6
sg4
Fnan
sg5
I-102500
sS'restricted_stock_deferred_fill0'
p433
I44093
sS'expenses_fill0'
p434
I0
sg9
g6
sS'salary_fill0'
p435
I0
sS'exercised_stock_options_fill0'
p436
I3285
sg12
I00
sg13
g6
sg14
g6
sg16
g6
sg17
I0
sg18
I44093
sg19
g6
sg20
g6
sg21
g6
sg22
g6
sS'total_stock_value_fill0'
p437
I-44093
sg24
I3285
sg25
Fnan
sg26
g6
sS'total_payments_fill0'
p438
I102500
sg28
I-44093
sg29
g6
sS'deferred_income_fill0'
p439
I0
sg31
g6
sS'deferral_payments_fill0'
p440
I-102500
sS'restricted_stock_fill0'
p441
I0
sg34
g6
sg35
g6
sg36
Fnan
sS'other_fill0'
p442
I0
sg38
I102500
sS'long_term_incentive_fill0'
p443
I0
sS'loan_advances_fill0'
p444
I0
sg41
I3285
sS'bonus_fill0'
p445
I0
sS'director_fees_fill0'
p446
I3285
ssS'SHANKMAN JEFFREY A'
p447
(dp448
g3
I3221
sg4
F0.0350615441999254
sg5
g6
sS'restricted_stock_deferred_fill0'
p449
I0
sS'expenses_fill0'
p450
I178979
sg9
I178979
sS'salary_fill0'
p451
I304110
sS'exercised_stock_options_fill0'
p452
I1441898
sg12
I00
sg13
g6
sg14
S'jeffrey.shankman@enron.com'
p453
sg16
I554422
sg17
I1
sg18
g6
sg19
I1730
sg20
g6
sg21
I2681
sg22
I1191
sS'total_stock_value_fill0'
p454
I2072035
sg24
g6
sg25
F0.025768394908413535
sg26
I2000000
sS'total_payments_fill0'
p455
I3038702
sg28
I2072035
sg29
I94
sS'deferred_income_fill0'
p456
I0
sg31
I83
sS'deferral_payments_fill0'
p457
I0
sS'restricted_stock_fill0'
p458
I630137
sg34
I630137
sg35
I304110
sg36
F0.5371002794163303
sS'other_fill0'
p459
I1191
sg38
I3038702
sS'long_term_incentive_fill0'
p460
I554422
sS'loan_advances_fill0'
p461
I0
sg41
I1441898
sS'bonus_fill0'
p462
I2000000
sS'director_fees_fill0'
p463
I0
ssS'WODRASKA JOHN'
p464
(dp465
g3
g6
sg4
Fnan
sg5
g6
sS'restricted_stock_deferred_fill0'
p466
I0
sS'expenses_fill0'
p467
I0
sg9
g6
sS'salary_fill0'
p468
I0
sS'exercised_stock_options_fill0'
p469
I0
sg12
I00
sg13
g6
sg14
S'john.wodraska@enron.com'
p470
sg16
g6
sg17
I0
sg18
g6
sg19
g6
sg20
g6
sg21
g6
sg22
I189583
sS'total_stock_value_fill0'
p471
I0
sg24
g6
sg25
Fnan
sg26
g6
sS'total_payments_fill0'
p472
I189583
sg28
g6
sg29
g6
sS'deferred_income_fill0'
p473
I0
sg31
g6
sS'deferral_payments_fill0'
p474
I0
sS'restricted_stock_fill0'
p475
I0
sg34
g6
sg35
g6
sg36
Fnan
sS'other_fill0'
p476
I189583
sg38
I189583
sS'long_term_incentive_fill0'
p477
I0
sS'loan_advances_fill0'
p478
I0
sg41
g6
sS'bonus_fill0'
p479
I0
sS'director_fees_fill0'
p480
I0
ssS'BERGSIEKER RICHARD P'
p481
(dp482
g3
I383
sg4
F0.06779661016949153
sg5
g6
sS'restricted_stock_deferred_fill0'
p483
I0
sS'expenses_fill0'
p484
I59175
sg9
I59175
sS'salary_fill0'
p485
I187922
sS'exercised_stock_options_fill0'
p486
I0
sg12
I00
sg13
I-485813
sg14
S'rick.bergsieker@enron.com'
p487
sg16
I180250
sg17
I1
sg18
g6
sg19
I233
sg20
g6
sg21
I59
sg22
I427316
sS'total_stock_value_fill0'
p488
I659249
sg24
g6
sg25
F0.0
sg26
I250000
sS'total_payments_fill0'
p489
I618850
sg28
I659249
sg29
I4
sS'deferred_income_fill0'
p490
I-485813
sg31
I0
sS'deferral_payments_fill0'
p491
I0
sS'restricted_stock_fill0'
p492
I659249
sg34
I659249
sg35
I187922
sg36
F0.608355091383812
sS'other_fill0'
p493
I427316
sg38
I618850
sS'long_term_incentive_fill0'
p494
I180250
sS'loan_advances_fill0'
p495
I0
sg41
g6
sS'bonus_fill0'
p496
I250000
sS'director_fees_fill0'
p497
I0
ssS'URQUHART JOHN A'
p498
(dp499
g3
g6
sg4
Fnan
sg5
g6
sS'restricted_stock_deferred_fill0'
p500
I0
sS'expenses_fill0'
p501
I228656
sg9
I228656
sS'salary_fill0'
p502
I0
sS'exercised_stock_options_fill0'
p503
I0
sg12
I00
sg13
I-36666
sg14
g6
sg16
g6
sg17
I0
sg18
g6
sg19
g6
sg20
g6
sg21
g6
sg22
g6
sS'total_stock_value_fill0'
p504
I0
sg24
I36666
sg25
Fnan
sg26
g6
sS'total_payments_fill0'
p505
I228656
sg28
g6
sg29
g6
sS'deferred_income_fill0'
p506
I-36666
sg31
g6
sS'deferral_payments_fill0'
p507
I0
sS'restricted_stock_fill0'
p508
I0
sg34
g6
sg35
g6
sg36
Fnan
sS'other_fill0'
p509
I0
sg38
I228656
sS'long_term_incentive_fill0'
p510
I0
sS'loan_advances_fill0'
p511
I0
sg41
g6
sS'bonus_fill0'
p512
I0
sS'director_fees_fill0'
p513
I36666
ssS'BIBI PHILIPPE A'
p514
(dp515
g3
I1607
sg4
F0.575
sg5
g6
sS'restricted_stock_deferred_fill0'
p516
I0
sS'expenses_fill0'
p517
I38559
sg9
I38559
sS'salary_fill0'
p518
I213625
sS'exercised_stock_options_fill0'
p519
I1465734
sg12
I00
sg13
g6
sg14
S'philippe.bibi@enron.com'
p520
sg16
I369721
sg17
I1
sg18
g6
sg19
I1336
sg20
g6
sg21
I40
sg22
I425688
sS'total_stock_value_fill0'
p521
I1843816
sg24
g6
sg25
F0.004978220286247666
sg26
I1000000
sS'total_payments_fill0'
p522
I2047593
sg28
I1843816
sg29
I23
sS'deferred_income_fill0'
p523
I0
sg31
I8
sS'deferral_payments_fill0'
p524
I0
sS'restricted_stock_fill0'
p525
I378082
sg34
I378082
sg35
I213625
sg36
F0.8313627878033603
sS'other_fill0'
p526
I425688
sg38
I2047593
sS'long_term_incentive_fill0'
p527
I369721
sS'loan_advances_fill0'
p528
I0
sg41
I1465734
sS'bonus_fill0'
p529
I1000000
sS'director_fees_fill0'
p530
I0
ssS'RIEKER PAULA H'
p531
(dp532
g3
I1328
sg4
F0.4268292682926829
sg5
I214678
sS'restricted_stock_deferred_fill0'
p533
I0
sS'expenses_fill0'
p534
I33271
sg9
I33271
sS'salary_fill0'
p535
I249201
sS'exercised_stock_options_fill0'
p536
I1635238
sg12
I01
sg13
I-100000
sg14
S'paula.rieker@enron.com'
p537
sg16
g6
sg17
I1
sg18
g6
sg19
I1258
sg20
g6
sg21
I82
sg22
I1950
sS'total_stock_value_fill0'
p538
I1918887
sg24
g6
sg25
F0.03614457831325301
sg26
I700000
sS'total_payments_fill0'
p539
I1099100
sg28
I1918887
sg29
I35
sS'deferred_income_fill0'
p540
I-100000
sg31
I48
sS'deferral_payments_fill0'
p541
I214678
sS'restricted_stock_fill0'
p542
I283649
sg34
I283649
sg35
I249201
sg36
F0.947289156626506
sS'other_fill0'
p543
I1950
sg38
I1099100
sS'long_term_incentive_fill0'
p544
I0
sS'loan_advances_fill0'
p545
I0
sg41
I1635238
sS'bonus_fill0'
p546
I700000
sS'director_fees_fill0'
p547
I0
ssS'WHALEY DAVID A'
p548
(dp549
g3
g6
sg4
Fnan
sg5
g6
sS'restricted_stock_deferred_fill0'
p550
I0
sS'expenses_fill0'
p551
I0
sg9
g6
sS'salary_fill0'
p552
I0
sS'exercised_stock_options_fill0'
p553
I98718
sg12
I00
sg13
g6
sg14
g6
sg16
g6
sg17
I0
sg18
g6
sg19
g6
sg20
g6
sg21
g6
sg22
g6
sS'total_stock_value_fill0'
p554
I98718
sg24
g6
sg25
Fnan
sg26
g6
sS'total_payments_fill0'
p555
I0
sg28
I98718
sg29
g6
sS'deferred_income_fill0'
p556
I0
sg31
g6
sS'deferral_payments_fill0'
p557
I0
sS'restricted_stock_fill0'
p558
I0
sg34
g6
sg35
g6
sg36
Fnan
sS'other_fill0'
p559
I0
sg38
g6
sS'long_term_incentive_fill0'
p560
I0
sS'loan_advances_fill0'
p561
I0
sg41
I98718
sS'bonus_fill0'
p562
I0
sS'director_fees_fill0'
p563
I0
ssS'BECK SALLY W'
p564
(dp565
g3
I7315
sg4
F0.033156804052498275
sg5
g6
sS'restricted_stock_deferred_fill0'
p566
I0
sS'expenses_fill0'
p567
I37172
sg9
I37172
sS'salary_fill0'
p568
I231330
sS'exercised_stock_options_fill0'
p569
I0
sg12
I00
sg13
g6
sg14
S'sally.beck@enron.com'
p570
sg16
g6
sg17
I1
sg18
g6
sg19
I2639
sg20
g6
sg21
I4343
sg22
I566
sS'total_stock_value_fill0'
p571
I126027
sg24
g6
sg25
F0.052768284347231714
sg26
I700000
sS'total_payments_fill0'
p572
I969068
sg28
I126027
sg29
I144
sS'deferred_income_fill0'
p573
I0
sg31
I386
sS'deferral_payments_fill0'
p574
I0
sS'restricted_stock_fill0'
p575
I126027
sg34
I126027
sg35
I231330
sg36
F0.36076555023923446
sS'other_fill0'
p576
I566
sg38
I969068
sS'long_term_incentive_fill0'
p577
I0
sS'loan_advances_fill0'
p578
I0
sg41
g6
sS'bonus_fill0'
p579
I700000
sS'director_fees_fill0'
p580
I0
ssS'HAUG DAVID L'
p581
(dp582
g3
I573
sg4
F0.21052631578947367
sg5
g6
sS'restricted_stock_deferred_fill0'
p583
I0
sS'expenses_fill0'
p584
I475
sg9
I475
sS'salary_fill0'
p585
I0
sS'exercised_stock_options_fill0'
p586
I0
sg12
I00
sg13
g6
sg14
S'david.haug@enron.com'
p587
sg16
g6
sg17
I1
sg18
g6
sg19
I471
sg20
g6
sg21
I19
sg22
g6
sS'total_stock_value_fill0'
p588
I2217299
sg24
g6
sg25
F0.012216404886561954
sg26
g6
sS'total_payments_fill0'
p589
I475
sg28
I2217299
sg29
I4
sS'deferred_income_fill0'
p590
I0
sg31
I7
sS'deferral_payments_fill0'
p591
I0
sS'restricted_stock_fill0'
p592
I2217299
sg34
I2217299
sg35
g6
sg36
F0.8219895287958116
sS'other_fill0'
p593
I0
sg38
I475
sS'long_term_incentive_fill0'
p594
I0
sS'loan_advances_fill0'
p595
I0
sg41
g6
sS'bonus_fill0'
p596
I0
sS'director_fees_fill0'
p597
I0
ssS'ECHOLS JOHN B'
p598
(dp599
g3
g6
sg4
Fnan
sg5
g6
sS'restricted_stock_deferred_fill0'
p600
I0
sS'expenses_fill0'
p601
I21530
sg9
I21530
sS'salary_fill0'
p602
I182245
sS'exercised_stock_options_fill0'
p603
I601438
sg12
I00
sg13
g6
sg14
S'john.echols@enron.com'
p604
sg16
I2234774
sg17
I0
sg18
g6
sg19
g6
sg20
g6
sg21
g6
sg22
I53775
sS'total_stock_value_fill0'
p605
I1008941
sg24
g6
sg25
Fnan
sg26
I200000
sS'total_payments_fill0'
p606
I2692324
sg28
I1008941
sg29
g6
sS'deferred_income_fill0'
p607
I0
sg31
g6
sS'deferral_payments_fill0'
p608
I0
sS'restricted_stock_fill0'
p609
I407503
sg34
I407503
sg35
I182245
sg36
Fnan
sS'other_fill0'
p610
I53775
sg38
I2692324
sS'long_term_incentive_fill0'
p611
I2234774
sS'loan_advances_fill0'
p612
I0
sg41
I601438
sS'bonus_fill0'
p613
I200000
sS'director_fees_fill0'
p614
I0
ssS'MENDELSOHN JOHN'
p615
(dp616
g3
g6
sg4
Fnan
sg5
g6
sS'restricted_stock_deferred_fill0'
p617
I0
sS'expenses_fill0'
p618
I148
sg9
I148
sS'salary_fill0'
p619
I0
sS'exercised_stock_options_fill0'
p620
I0
sg12
I00
sg13
I-103750
sg14
g6
sg16
g6
sg17
I0
sg18
g6
sg19
g6
sg20
g6
sg21
g6
sg22
g6
sS'total_stock_value_fill0'
p621
I0
sg24
I103750
sg25
Fnan
sg26
g6
sS'total_payments_fill0'
p622
I148
sg28
g6
sg29
g6
sS'deferred_income_fill0'
p623
I-103750
sg31
g6
sS'deferral_payments_fill0'
p624
I0
sS'restricted_stock_fill0'
p625
I0
sg34
g6
sg35
g6
sg36
Fnan
sS'other_fill0'
p626
I0
sg38
I148
sS'long_term_incentive_fill0'
p627
I0
sS'loan_advances_fill0'
p628
I0
sg41
g6
sS'bonus_fill0'
p629
I0
sS'director_fees_fill0'
p630
I103750
ssS'HICKERSON GARY J'
p631
(dp632
g3
I1320
sg4
F1.4814814814814814
sg5
g6
sS'restricted_stock_deferred_fill0'
p633
I0
sS'expenses_fill0'
p634
I98849
sg9
I98849
sS'salary_fill0'
p635
I211788
sS'exercised_stock_options_fill0'
p636
I0
sg12
I00
sg13
g6
sg14
S'gary.hickerson@enron.com'
p637
sg16
I69223
sg17
I1
sg18
g6
sg19
I900
sg20
g6
sg21
I27
sg22
I1936
sS'total_stock_value_fill0'
p638
I441096
sg24
g6
sg25
F0.0007575757575757576
sg26
I1700000
sS'total_payments_fill0'
p639
I2081796
sg28
I441096
sg29
I40
sS'deferred_income_fill0'
p640
I0
sg31
I1
sS'deferral_payments_fill0'
p641
I0
sS'restricted_stock_fill0'
p642
I441096
sg34
I441096
sg35
I211788
sg36
F0.6818181818181818
sS'other_fill0'
p643
I1936
sg38
I2081796
sS'long_term_incentive_fill0'
p644
I69223
sS'loan_advances_fill0'
p645
I0
sg41
g6
sS'bonus_fill0'
p646
I1700000
sS'director_fees_fill0'
p647
I0
ssS'CLINE KENNETH W'
p648
(dp649
g3
g6
sg4
Fnan
sg5
g6
sS'restricted_stock_deferred_fill0'
p650
I-472568
sS'expenses_fill0'
p651
I0
sg9
g6
sS'salary_fill0'
p652
I0
sS'exercised_stock_options_fill0'
p653
I0
sg12
I00
sg13
g6
sg14
g6
sg16
g6
sg17
I0
sg18
I-472568
sg19
g6
sg20
g6
sg21
g6
sg22
g6
sS'total_stock_value_fill0'
p654
I189518
sg24
g6
sg25
Fnan
sg26
g6
sS'total_payments_fill0'
p655
I0
sg28
I189518
sg29
g6
sS'deferred_income_fill0'
p656
I0
sg31
g6
sS'deferral_payments_fill0'
p657
I0
sS'restricted_stock_fill0'
p658
I662086
sg34
I662086
sg35
g6
sg36
Fnan
sS'other_fill0'
p659
I0
sg38
g6
sS'long_term_incentive_fill0'
p660
I0
sS'loan_advances_fill0'
p661
I0
sg41
g6
sS'bonus_fill0'
p662
I0
sS'director_fees_fill0'
p663
I0
ssS'LEWIS RICHARD'
p664
(dp665
g3
I952
sg4
F0.38461538461538464
sg5
g6
sS'restricted_stock_deferred_fill0'
p666
I0
sS'expenses_fill0'
p667
I0
sg9
g6
sS'salary_fill0'
p668
I0
sS'exercised_stock_options_fill0'
p669
I850477
sg12
I00
sg13
g6
sg14
S'richard.lewis@enron.com'
p670
sg16
g6
sg17
I1
sg18
g6
sg19
I739
sg20
g6
sg21
I26
sg22
g6
sS'total_stock_value_fill0'
p671
I850477
sg24
g6
sg25
F0.0
sg26
g6
sS'total_payments_fill0'
p672
I0
sg28
I850477
sg29
I10
sS'deferred_income_fill0'
p673
I0
sg31
I0
sS'deferral_payments_fill0'
p674
I0
sS'restricted_stock_fill0'
p675
I0
sg34
g6
sg35
g6
sg36
F0.7762605042016807
sS'other_fill0'
p676
I0
sg38
g6
sS'long_term_incentive_fill0'
p677
I0
sS'loan_advances_fill0'
p678
I0
sg41
I850477
sS'bonus_fill0'
p679
I0
sS'director_fees_fill0'
p680
I0
ssS'HAYES ROBERT E'
p681
(dp682
g3
I504
sg4
F1.3333333333333333
sg5
I7961
sS'restricted_stock_deferred_fill0'
p683
I0
sS'expenses_fill0'
p684
I0
sg9
g6
sS'salary_fill0'
p685
I0
sS'exercised_stock_options_fill0'
p686
I0
sg12
I00
sg13
g6
sg14
S'robert.hayes@enron.com'
p687
sg16
g6
sg17
I1
sg18
g6
sg19
I50
sg20
g6
sg21
I12
sg22
g6
sS'total_stock_value_fill0'
p688
I151418
sg24
g6
sg25
F0.0
sg26
g6
sS'total_payments_fill0'
p689
I7961
sg28
I151418
sg29
I16
sS'deferred_income_fill0'
p690
I0
sg31
I0
sS'deferral_payments_fill0'
p691
I7961
sS'restricted_stock_fill0'
p692
I151418
sg34
I151418
sg35
g6
sg36
F0.0992063492063492
sS'other_fill0'
p693
I0
sg38
I7961
sS'long_term_incentive_fill0'
p694
I0
sS'loan_advances_fill0'
p695
I0
sg41
g6
sS'bonus_fill0'
p696
I0
sS'director_fees_fill0'
p697
I0
ssS'MCCARTY DANNY J'
p698
(dp699
g3
I1433
sg4
F0.11627906976744186
sg5
g6
sS'restricted_stock_deferred_fill0'
p700
I0
sS'expenses_fill0'
p701
I0
sg9
g6
sS'salary_fill0'
p702
I0
sS'exercised_stock_options_fill0'
p703
I664375
sg12
I00
sg13
g6
sg14
S'danny.mccarty@enron.com'
p704
sg16
g6
sg17
I1
sg18
g6
sg19
I508
sg20
g6
sg21
I215
sg22
g6
sS'total_stock_value_fill0'
p705
I758931
sg24
g6
sg25
F0.0013956734124214933
sg26
g6
sS'total_payments_fill0'
p706
I0
sg28
I758931
sg29
I25
sS'deferred_income_fill0'
p707
I0
sg31
I2
sS'deferral_payments_fill0'
p708
I0
sS'restricted_stock_fill0'
p709
I94556
sg34
I94556
sg35
g6
sg36
F0.35450104675505933
sS'other_fill0'
p710
I0
sg38
g6
sS'long_term_incentive_fill0'
p711
I0
sS'loan_advances_fill0'
p712
I0
sg41
I664375
sS'bonus_fill0'
p713
I0
sS'director_fees_fill0'
p714
I0
ssS'KOPPER MICHAEL J'
p715
(dp716
g3
g6
sg4
Fnan
sg5
g6
sS'restricted_stock_deferred_fill0'
p717
I0
sS'expenses_fill0'
p718
I118134
sg9
I118134
sS'salary_fill0'
p719
I224305
sS'exercised_stock_options_fill0'
p720
I0
sg12
I01
sg13
g6
sg14
S'michael.kopper@enron.com'
p721
sg16
I602671
sg17
I0
sg18
g6
sg19
g6
sg20
g6
sg21
g6
sg22
I907502
sS'total_stock_value_fill0'
p722
I985032
sg24
g6
sg25
Fnan
sg26
I800000
sS'total_payments_fill0'
p723
I2652612
sg28
I985032
sg29
g6
sS'deferred_income_fill0'
p724
I0
sg31
g6
sS'deferral_payments_fill0'
p725
I0
sS'restricted_stock_fill0'
p726
I985032
sg34
I985032
sg35
I224305
sg36
Fnan
sS'other_fill0'
p727
I907502
sg38
I2652612
sS'long_term_incentive_fill0'
p728
I602671
sS'loan_advances_fill0'
p729
I0
sg41
g6
sS'bonus_fill0'
p730
I800000
sS'director_fees_fill0'
p731
I0
ssS'LEFF DANIEL P'
p732
(dp733
g3
I2822
sg4
F1.0634920634920635
sg5
g6
sS'restricted_stock_deferred_fill0'
p734
I0
sS'expenses_fill0'
p735
I0
sg9
g6
sS'salary_fill0'
p736
I273746
sS'exercised_stock_options_fill0'
p737
I0
sg12
I00
sg13
g6
sg14
S'dan.leff@enron.com'
p738
sg16
I1387399
sg17
I1
sg18
g6
sg19
I2672
sg20
g6
sg21
I63
sg22
I3083
sS'total_stock_value_fill0'
p739
I360528
sg24
g6
sg25
F0.004961020552799433
sg26
I1000000
sS'total_payments_fill0'
p740
I2664228
sg28
I360528
sg29
I67
sS'deferred_income_fill0'
p741
I0
sg31
I14
sS'deferral_payments_fill0'
p742
I0
sS'restricted_stock_fill0'
p743
I360528
sg34
I360528
sg35
I273746
sg36
F0.9468462083628633
sS'other_fill0'
p744
I3083
sg38
I2664228
sS'long_term_incentive_fill0'
p745
I1387399
sS'loan_advances_fill0'
p746
I0
sg41
g6
sS'bonus_fill0'
p747
I1000000
sS'director_fees_fill0'
p748
I0
ssS'LAVORATO JOHN J'
p749
(dp750
g3
I7259
sg4
F0.20425531914893616
sg5
g6
sS'restricted_stock_deferred_fill0'
p751
I0
sS'expenses_fill0'
p752
I49537
sg9
I49537
sS'salary_fill0'
p753
I339288
sS'exercised_stock_options_fill0'
p754
I4158995
sg12
I00
sg13
g6
sg14
S'john.lavorato@enron.com'
p755
sg16
I2035380
sg17
I1
sg18
g6
sg19
I3962
sg20
g6
sg21
I2585
sg22
I1552
sS'total_stock_value_fill0'
p756
I5167144
sg24
g6
sg25
F0.05661936905909905
sg26
I8000000
sS'total_payments_fill0'
p757
I10425757
sg28
I5167144
sg29
I528
sS'deferred_income_fill0'
p758
I0
sg31
I411
sS'deferral_payments_fill0'
p759
I0
sS'restricted_stock_fill0'
p760
I1008149
sg34
I1008149
sg35
I339288
sg36
F0.5458052073288332
sS'other_fill0'
p761
I1552
sg38
I10425757
sS'long_term_incentive_fill0'
p762
I2035380
sS'loan_advances_fill0'
p763
I0
sg41
I4158995
sS'bonus_fill0'
p764
I8000000
sS'director_fees_fill0'
p765
I0
ssS'BERBERIAN DAVID'
p766
(dp767
g3
g6
sg4
Fnan
sg5
g6
sS'restricted_stock_deferred_fill0'
p768
I0
sS'expenses_fill0'
p769
I11892
sg9
I11892
sS'salary_fill0'
p770
I216582
sS'exercised_stock_options_fill0'
p771
I1624396
sg12
I00
sg13
g6
sg14
S'david.berberian@enron.com'
p772
sg16
g6
sg17
I0
sg18
g6
sg19
g6
sg20
g6
sg21
g6
sg22
g6
sS'total_stock_value_fill0'
p773
I2493616
sg24
g6
sg25
Fnan
sg26
g6
sS'total_payments_fill0'
p774
I228474
sg28
I2493616
sg29
g6
sS'deferred_income_fill0'
p775
I0
sg31
g6
sS'deferral_payments_fill0'
p776
I0
sS'restricted_stock_fill0'
p777
I869220
sg34
I869220
sg35
I216582
sg36
Fnan
sS'other_fill0'
p778
I0
sg38
I228474
sS'long_term_incentive_fill0'
p779
I0
sS'loan_advances_fill0'
p780
I0
sg41
I1624396
sS'bonus_fill0'
p781
I0
sS'director_fees_fill0'
p782
I0
ssS'DETMERING TIMOTHY J'
p783
(dp784
g3
g6
sg4
Fnan
sg5
I875307
sS'restricted_stock_deferred_fill0'
p785
I-315068
sS'expenses_fill0'
p786
I52255
sg9
I52255
sS'salary_fill0'
p787
I210500
sS'exercised_stock_options_fill0'
p788
I2027865
sg12
I00
sg13
I-775241
sg14
S'timothy.detmering@enron.com'
p789
sg16
I415657
sg17
I0
sg18
I-315068
sg19
g6
sg20
g6
sg21
g6
sg22
I1105
sS'total_stock_value_fill0'
p790
I2027865
sg24
g6
sg25
Fnan
sg26
I425000
sS'total_payments_fill0'
p791
I1204583
sg28
I2027865
sg29
g6
sS'deferred_income_fill0'
p792
I-775241
sg31
g6
sS'deferral_payments_fill0'
p793
I875307
sS'restricted_stock_fill0'
p794
I315068
sg34
I315068
sg35
I210500
sg36
Fnan
sS'other_fill0'
p795
I1105
sg38
I1204583
sS'long_term_incentive_fill0'
p796
I415657
sS'loan_advances_fill0'
p797
I0
sg41
I2027865
sS'bonus_fill0'
p798
I425000
sS'director_fees_fill0'
p799
I0
ssS'WAKEHAM JOHN'
p800
(dp801
g3
g6
sg4
Fnan
sg5
g6
sS'restricted_stock_deferred_fill0'
p802
I0
sS'expenses_fill0'
p803
I103773
sg9
I103773
sS'salary_fill0'
p804
I0
sS'exercised_stock_options_fill0'
p805
I0
sg12
I00
sg13
g6
sg14
g6
sg16
g6
sg17
I0
sg18
g6
sg19
g6
sg20
g6
sg21
g6
sg22
g6
sS'total_stock_value_fill0'
p806
I0
sg24
I109298
sg25
Fnan
sg26
g6
sS'total_payments_fill0'
p807
I213071
sg28
g6
sg29
g6
sS'deferred_income_fill0'
p808
I0
sg31
g6
sS'deferral_payments_fill0'
p809
I0
sS'restricted_stock_fill0'
p810
I0
sg34
g6
sg35
g6
sg36
Fnan
sS'other_fill0'
p811
I0
sg38
I213071
sS'long_term_incentive_fill0'
p812
I0
sS'loan_advances_fill0'
p813
I0
sg41
g6
sS'bonus_fill0'
p814
I0
sS'director_fees_fill0'
p815
I109298
ssS'POWERS WILLIAM'
p816
(dp817
g3
I653
sg4
F0.0
sg5
g6
sS'restricted_stock_deferred_fill0'
p818
I0
sS'expenses_fill0'
p819
I0
sg9
g6
sS'salary_fill0'
p820
I0
sS'exercised_stock_options_fill0'
p821
I0
sg12
I00
sg13
I-17500
sg14
S'ken.powers@enron.com'
p822
sg16
g6
sg17
I1
sg18
g6
sg19
I12
sg20
g6
sg21
I26
sg22
g6
sS'total_stock_value_fill0'
p823
I0
sg24
I17500
sg25
F0.0
sg26
g6
sS'total_payments_fill0'
p824
I0
sg28
g6
sg29
I0
sS'deferred_income_fill0'
p825
I-17500
sg31
I0
sS'deferral_payments_fill0'
p826
I0
sS'restricted_stock_fill0'
p827
I0
sg34
g6
sg35
g6
sg36
F0.018376722817764167
sS'other_fill0'
p828
I0
sg38
g6
sS'long_term_incentive_fill0'
p829
I0
sS'loan_advances_fill0'
p830
I0
sg41
g6
sS'bonus_fill0'
p831
I0
sS'director_fees_fill0'
p832
I17500
ssS'GOLD JOSEPH'
p833
(dp834
g3
g6
sg4
Fnan
sg5
g6
sS'restricted_stock_deferred_fill0'
p835
I0
sS'expenses_fill0'
p836
I0
sg9
g6
sS'salary_fill0'
p837
I272880
sS'exercised_stock_options_fill0'
p838
I436515
sg12
I00
sg13
g6
sg14
S'joe.gold@enron.com'
p839
sg16
I304805
sg17
I0
sg18
g6
sg19
g6
sg20
g6
sg21
g6
sg22
I819288
sS'total_stock_value_fill0'
p840
I877611
sg24
g6
sg25
Fnan
sg26
I750000
sS'total_payments_fill0'
p841
I2146973
sg28
I877611
sg29
g6
sS'deferred_income_fill0'
p842
I0
sg31
g6
sS'deferral_payments_fill0'
p843
I0
sS'restricted_stock_fill0'
p844
I441096
sg34
I441096
sg35
I272880
sg36
Fnan
sS'other_fill0'
p845
I819288
sg38
I2146973
sS'long_term_incentive_fill0'
p846
I304805
sS'loan_advances_fill0'
p847
I0
sg41
I436515
sS'bonus_fill0'
p848
I750000
sS'director_fees_fill0'
p849
I0
ssS'BANNANTINE JAMES M'
p850
(dp851
g3
I566
sg4
F1.3448275862068966
sg5
g6
sS'restricted_stock_deferred_fill0'
p852
I-560222
sS'expenses_fill0'
p853
I56301
sg9
I56301
sS'salary_fill0'
p854
I477
sS'exercised_stock_options_fill0'
p855
I4046157
sg12
I00
sg13
I-5104
sg14
S'james.bannantine@enron.com'
p856
sg16
g6
sg17
I1
sg18
I-560222
sg19
I465
sg20
g6
sg21
I29
sg22
I864523
sS'total_stock_value_fill0'
p857
I5243487
sg24
g6
sg25
F0.0
sg26
g6
sS'total_payments_fill0'
p858
I916197
sg28
I5243487
sg29
I39
sS'deferred_income_fill0'
p859
I-5104
sg31
I0
sS'deferral_payments_fill0'
p860
I0
sS'restricted_stock_fill0'
p861
I1757552
sg34
I1757552
sg35
I477
sg36
F0.8215547703180212
sS'other_fill0'
p862
I864523
sg38
I916197
sS'long_term_incentive_fill0'
p863
I0
sS'loan_advances_fill0'
p864
I0
sg41
I4046157
sS'bonus_fill0'
p865
I0
sS'director_fees_fill0'
p866
I0
ssS'DUNCAN JOHN H'
p867
(dp868
g3
g6
sg4
Fnan
sg5
g6
sS'restricted_stock_deferred_fill0'
p869
I0
sS'expenses_fill0'
p870
I0
sg9
g6
sS'salary_fill0'
p871
I0
sS'exercised_stock_options_fill0'
p872
I371750
sg12
I00
sg13
I-25000
sg14
g6
sg16
g6
sg17
I0
sg18
g6
sg19
g6
sg20
g6
sg21
g6
sg22
g6
sS'total_stock_value_fill0'
p873
I371750
sg24
I102492
sg25
Fnan
sg26
g6
sS'total_payments_fill0'
p874
I77492
sg28
I371750
sg29
g6
sS'deferred_income_fill0'
p875
I-25000
sg31
g6
sS'deferral_payments_fill0'
p876
I0
sS'restricted_stock_fill0'
p877
I0
sg34
g6
sg35
g6
sg36
Fnan
sS'other_fill0'
p878
I0
sg38
I77492
sS'long_term_incentive_fill0'
p879
I0
sS'loan_advances_fill0'
p880
I0
sg41
I371750
sS'bonus_fill0'
p881
I0
sS'director_fees_fill0'
p882
I102492
ssS'SHAPIRO RICHARD S'
p883
(dp884
g3
I15149
sg4
F0.060905349794238686
sg5
g6
sS'restricted_stock_deferred_fill0'
p885
I0
sS'expenses_fill0'
p886
I137767
sg9
I137767
sS'salary_fill0'
p887
I269076
sS'exercised_stock_options_fill0'
p888
I607837
sg12
I00
sg13
g6
sg14
S'richard.shapiro@enron.com'
p889
sg16
g6
sg17
I1
sg18
g6
sg19
I4527
sg20
g6
sg21
I1215
sg22
I705
sS'total_stock_value_fill0'
p890
I987001
sg24
g6
sg25
F0.004290712258234867
sg26
I650000
sS'total_payments_fill0'
p891
I1057548
sg28
I987001
sg29
I74
sS'deferred_income_fill0'
p892
I0
sg31
I65
sS'deferral_payments_fill0'
p893
I0
sS'restricted_stock_fill0'
p894
I379164
sg34
I379164
sg35
I269076
sg36
F0.29883160604660375
sS'other_fill0'
p895
I705
sg38
I1057548
sS'long_term_incentive_fill0'
p896
I0
sS'loan_advances_fill0'
p897
I0
sg41
I607837
sS'bonus_fill0'
p898
I650000
sS'director_fees_fill0'
p899
I0
ssS'SHERRIFF JOHN R'
p900
(dp901
g3
I3187
sg4
F0.30434782608695654
sg5
g6
sS'restricted_stock_deferred_fill0'
p902
I0
sS'expenses_fill0'
p903
I0
sg9
g6
sS'salary_fill0'
p904
I428780
sS'exercised_stock_options_fill0'
p905
I1835558
sg12
I00
sg13
g6
sg14
S'john.sherriff@enron.com'
p906
sg16
I554422
sg17
I1
sg18
g6
sg19
I2103
sg20
g6
sg21
I92
sg22
I1852186
sS'total_stock_value_fill0'
p907
I3128982
sg24
g6
sg25
F0.0072168183244430495
sg26
I1500000
sS'total_payments_fill0'
p908
I4335388
sg28
I3128982
sg29
I28
sS'deferred_income_fill0'
p909
I0
sg31
I23
sS'deferral_payments_fill0'
p910
I0
sS'restricted_stock_fill0'
p911
I1293424
sg34
I1293424
sg35
I428780
sg36
F0.6598682146219015
sS'other_fill0'
p912
I1852186
sg38
I4335388
sS'long_term_incentive_fill0'
p913
I554422
sS'loan_advances_fill0'
p914
I0
sg41
I1835558
sS'bonus_fill0'
p915
I1500000
sS'director_fees_fill0'
p916
I0
ssS'SHELBY REX'
p917
(dp918
g3
I225
sg4
F0.3333333333333333
sg5
g6
sS'restricted_stock_deferred_fill0'
p919
I0
sS'expenses_fill0'
p920
I22884
sg9
I22884
sS'salary_fill0'
p921
I211844
sS'exercised_stock_options_fill0'
p922
I1624396
sg12
I01
sg13
I-4167
sg14
S'rex.shelby@enron.com'
p923
sg16
g6
sg17
I1
sg18
g6
sg19
I91
sg20
g6
sg21
I39
sg22
I1573324
sS'total_stock_value_fill0'
p924
I2493616
sg24
g6
sg25
F0.06222222222222222
sg26
I200000
sS'total_payments_fill0'
p925
I2003885
sg28
I2493616
sg29
I13
sS'deferred_income_fill0'
p926
I-4167
sg31
I14
sS'deferral_payments_fill0'
p927
I0
sS'restricted_stock_fill0'
p928
I869220
sg34
I869220
sg35
I211844
sg36
F0.40444444444444444
sS'other_fill0'
p929
I1573324
sg38
I2003885
sS'long_term_incentive_fill0'
p930
I0
sS'loan_advances_fill0'
p931
I0
sg41
I1624396
sS'bonus_fill0'
p932
I200000
sS'director_fees_fill0'
p933
I0
ssS'LEMAISTRE CHARLES'
p934
(dp935
g3
g6
sg4
Fnan
sg5
g6
sS'restricted_stock_deferred_fill0'
p936
I0
sS'expenses_fill0'
p937
I0
sg9
g6
sS'salary_fill0'
p938
I0
sS'exercised_stock_options_fill0'
p939
I412878
sg12
I00
sg13
I-25000
sg14
g6
sg16
g6
sg17
I0
sg18
g6
sg19
g6
sg20
g6
sg21
g6
sg22
g6
sS'total_stock_value_fill0'
p940
I412878
sg24
I112492
sg25
Fnan
sg26
g6
sS'total_payments_fill0'
p941
I87492
sg28
I412878
sg29
g6
sS'deferred_income_fill0'
p942
I-25000
sg31
g6
sS'deferral_payments_fill0'
p943
I0
sS'restricted_stock_fill0'
p944
I0
sg34
g6
sg35
g6
sg36
Fnan
sS'other_fill0'
p945
I0
sg38
I87492
sS'long_term_incentive_fill0'
p946
I0
sS'loan_advances_fill0'
p947
I0
sg41
I412878
sS'bonus_fill0'
p948
I0
sS'director_fees_fill0'
p949
I112492
ssS'DEFFNER JOSEPH M'
p950
(dp951
g3
I714
sg4
F1.554054054054054
sg5
g6
sS'restricted_stock_deferred_fill0'
p952
I0
sS'expenses_fill0'
p953
I41626
sg9
I41626
sS'salary_fill0'
p954
I206121
sS'exercised_stock_options_fill0'
p955
I17378
sg12
I00
sg13
g6
sg14
S'joseph.deffner@enron.com'
p956
sg16
I335349
sg17
I1
sg18
g6
sg19
I552
sg20
g6
sg21
I74
sg22
I25553
sS'total_stock_value_fill0'
p957
I159211
sg24
g6
sg25
F0.0056022408963585435
sg26
I600000
sS'total_payments_fill0'
p958
I1208649
sg28
I159211
sg29
I115
sS'deferred_income_fill0'
p959
I0
sg31
I4
sS'deferral_payments_fill0'
p960
I0
sS'restricted_stock_fill0'
p961
I141833
sg34
I141833
sg35
I206121
sg36
F0.773109243697479
sS'other_fill0'
p962
I25553
sg38
I1208649
sS'long_term_incentive_fill0'
p963
I335349
sS'loan_advances_fill0'
p964
I0
sg41
I17378
sS'bonus_fill0'
p965
I600000
sS'director_fees_fill0'
p966
I0
ssS'KISHKILL JOSEPH G'
p967
(dp968
g3
g6
sg4
Fnan
sg5
g6
sS'restricted_stock_deferred_fill0'
p969
I0
sS'expenses_fill0'
p970
I116335
sg9
I116335
sS'salary_fill0'
p971
I174246
sS'exercised_stock_options_fill0'
p972
I0
sg12
I00
sg13
I-51042
sg14
S'joe.kishkill@enron.com'
p973
sg16
g6
sg17
I0
sg18
g6
sg19
g6
sg20
g6
sg21
g6
sg22
I465357
sS'total_stock_value_fill0'
p974
I1034346
sg24
g6
sg25
Fnan
sg26
g6
sS'total_payments_fill0'
p975
I704896
sg28
I1034346
sg29
g6
sS'deferred_income_fill0'
p976
I-51042
sg31
g6
sS'deferral_payments_fill0'
p977
I0
sS'restricted_stock_fill0'
p978
I1034346
sg34
I1034346
sg35
I174246
sg36
Fnan
sS'other_fill0'
p979
I465357
sg38
I704896
sS'long_term_incentive_fill0'
p980
I0
sS'loan_advances_fill0'
p981
I0
sg41
g6
sS'bonus_fill0'
p982
I0
sS'director_fees_fill0'
p983
I0
ssS'WHALLEY LAWRENCE G'
p984
(dp985
g3
I6019
sg4
F0.3345323741007194
sg5
g6
sS'restricted_stock_deferred_fill0'
p986
I0
sS'expenses_fill0'
p987
I57838
sg9
I57838
sS'salary_fill0'
p988
I510364
sS'exercised_stock_options_fill0'
p989
I3282960
sg12
I00
sg13
g6
sg14
S'greg.whalley@enron.com'
p990
sg16
I808346
sg17
I1
sg18
g6
sg19
I3920
sg20
g6
sg21
I556
sg22
I301026
sS'total_stock_value_fill0'
p991
I6079137
sg24
g6
sg25
F0.003987373317826882
sg26
I3000000
sS'total_payments_fill0'
p992
I4677574
sg28
I6079137
sg29
I186
sS'deferred_income_fill0'
p993
I0
sg31
I24
sS'deferral_payments_fill0'
p994
I0
sS'restricted_stock_fill0'
p995
I2796177
sg34
I2796177
sg35
I510364
sg36
F0.6512709752450573
sS'other_fill0'
p996
I301026
sg38
I4677574
sS'long_term_incentive_fill0'
p997
I808346
sS'loan_advances_fill0'
p998
I0
sg41
I3282960
sS'bonus_fill0'
p999
I3000000
sS'director_fees_fill0'
p1000
I0
ssS'MCCONNELL MICHAEL S'
p1001
(dp1002
g3
I3329
sg4
F0.03355215171407731
sg5
g6
sS'restricted_stock_deferred_fill0'
p1003
I0
sS'expenses_fill0'
p1004
I81364
sg9
I81364
sS'salary_fill0'
p1005
I365038
sS'exercised_stock_options_fill0'
p1006
I1623010
sg12
I00
sg13
g6
sg14
S'mike.mcconnell@enron.com'
p1007
sg16
I554422
sg17
I1
sg18
g6
sg19
I2189
sg20
g6
sg21
I2742
sg22
I540
sS'total_stock_value_fill0'
p1008
I3101279
sg24
g6
sg25
F0.058275758486031844
sg26
I1100000
sS'total_payments_fill0'
p1009
I2101364
sg28
I3101279
sg29
I92
sS'deferred_income_fill0'
p1010
I0
sg31
I194
sS'deferral_payments_fill0'
p1011
I0
sS'restricted_stock_fill0'
p1012
I1478269
sg34
I1478269
sg35
I365038
sg36
F0.657554821267648
sS'other_fill0'
p1013
I540
sg38
I2101364
sS'long_term_incentive_fill0'
p1014
I554422
sS'loan_advances_fill0'
p1015
I0
sg41
I1623010
sS'bonus_fill0'
p1016
I1100000
sS'director_fees_fill0'
p1017
I0
ssS'PIRO JIM'
p1018
(dp1019
g3
I58
sg4
F0.0
sg5
g6
sS'restricted_stock_deferred_fill0'
p1020
I0
sS'expenses_fill0'
p1021
I0
sg9
g6
sS'salary_fill0'
p1022
I0
sS'exercised_stock_options_fill0'
p1023
I0
sg12
I00
sg13
g6
sg14
S'jim.piro@enron.com'
p1024
sg16
g6
sg17
I1
sg18
g6
sg19
I3
sg20
g6
sg21
I16
sg22
g6
sS'total_stock_value_fill0'
p1025
I47304
sg24
g6
sg25
F0.017241379310344827
sg26
g6
sS'total_payments_fill0'
p1026
I0
sg28
I47304
sg29
I0
sS'deferred_income_fill0'
p1027
I0
sg31
I1
sS'deferral_payments_fill0'
p1028
I0
sS'restricted_stock_fill0'
p1029
I47304
sg34
I47304
sg35
g6
sg36
F0.05172413793103448
sS'other_fill0'
p1030
I0
sg38
g6
sS'long_term_incentive_fill0'
p1031
I0
sS'loan_advances_fill0'
p1032
I0
sg41
g6
sS'bonus_fill0'
p1033
I0
sS'director_fees_fill0'
p1034
I0
ssS'DELAINEY DAVID W'
p1035
(dp1036
g3
I3093
sg4
F0.021505376344086023
sg5
g6
sS'restricted_stock_deferred_fill0'
p1037
I0
sS'expenses_fill0'
p1038
I86174
sg9
I86174
sS'salary_fill0'
p1039
I365163
sS'exercised_stock_options_fill0'
p1040
I2291113
sg12
I01
sg13
g6
sg14
S'david.delainey@enron.com'
p1041
sg16
I1294981
sg17
I1
sg18
g6
sg19
I2097
sg20
g6
sg21
I3069
sg22
I1661
sS'total_stock_value_fill0'
p1042
I3614261
sg24
g6
sg25
F0.19689621726479145
sg26
I3000000
sS'total_payments_fill0'
p1043
I4747979
sg28
I3614261
sg29
I66
sS'deferred_income_fill0'
p1044
I0
sg31
I609
sS'deferral_payments_fill0'
p1045
I0
sS'restricted_stock_fill0'
p1046
I1323148
sg34
I1323148
sg35
I365163
sg36
F0.6779825412221144
sS'other_fill0'
p1047
I1661
sg38
I4747979
sS'long_term_incentive_fill0'
p1048
I1294981
sS'loan_advances_fill0'
p1049
I0
sg41
I2291113
sS'bonus_fill0'
p1050
I3000000
sS'director_fees_fill0'
p1051
I0
ssS'SULLIVAN-SHAKLOVITZ COLLEEN'
p1052
(dp1053
g3
g6
sg4
Fnan
sg5
I181993
sS'restricted_stock_deferred_fill0'
p1054
I0
sS'expenses_fill0'
p1055
I0
sg9
g6
sS'salary_fill0'
p1056
I162779
sS'exercised_stock_options_fill0'
p1057
I1362375
sg12
I00
sg13
g6
sg14
g6
sg16
I554422
sg17
I0
sg18
g6
sg19
g6
sg20
g6
sg21
g6
sg22
I162
sS'total_stock_value_fill0'
p1058
I1362375
sg24
g6
sg25
Fnan
sg26
I100000
sS'total_payments_fill0'
p1059
I999356
sg28
I1362375
sg29
g6
sS'deferred_income_fill0'
p1060
I0
sg31
g6
sS'deferral_payments_fill0'
p1061
I181993
sS'restricted_stock_fill0'
p1062
I0
sg34
g6
sg35
I162779
sg36
Fnan
sS'other_fill0'
p1063
I162
sg38
I999356
sS'long_term_incentive_fill0'
p1064
I554422
sS'loan_advances_fill0'
p1065
I0
sg41
I1362375
sS'bonus_fill0'
p1066
I100000
sS'director_fees_fill0'
p1067
I0
ssS'WROBEL BRUCE'
p1068
(dp1069
g3
g6
sg4
Fnan
sg5
g6
sS'restricted_stock_deferred_fill0'
p1070
I0
sS'expenses_fill0'
p1071
I0
sg9
g6
sS'salary_fill0'
p1072
I0
sS'exercised_stock_options_fill0'
p1073
I139130
sg12
I00
sg13
g6
sg14
g6
sg16
g6
sg17
I0
sg18
g6
sg19
g6
sg20
g6
sg21
g6
sg22
g6
sS'total_stock_value_fill0'
p1074
I139130
sg24
g6
sg25
Fnan
sg26
g6
sS'total_payments_fill0'
p1075
I0
sg28
I139130
sg29
g6
sS'deferred_income_fill0'
p1076
I0
sg31
g6
sS'deferral_payments_fill0'
p1077
I0
sS'restricted_stock_fill0'
p1078
I0
sg34
g6
sg35
g6
sg36
Fnan
sS'other_fill0'
p1079
I0
sg38
g6
sS'long_term_incentive_fill0'
p1080
I0
sS'loan_advances_fill0'
p1081
I0
sg41
I139130
sS'bonus_fill0'
p1082
I0
sS'director_fees_fill0'
p1083
I0
ssS'LINDHOLM TOD A'
p1084
(dp1085
g3
g6
sg4
Fnan
sg5
I204075
sS'restricted_stock_deferred_fill0'
p1086
I0
sS'expenses_fill0'
p1087
I57727
sg9
I57727
sS'salary_fill0'
p1088
I236457
sS'exercised_stock_options_fill0'
p1089
I2549361
sg12
I00
sg13
g6
sg14
S'tod.lindholm@enron.com'
p1090
sg16
I175000
sg17
I0
sg18
g6
sg19
g6
sg20
g6
sg21
g6
sg22
I2630
sS'total_stock_value_fill0'
p1091
I3064208
sg24
g6
sg25
Fnan
sg26
I200000
sS'total_payments_fill0'
p1092
I875889
sg28
I3064208
sg29
g6
sS'deferred_income_fill0'
p1093
I0
sg31
g6
sS'deferral_payments_fill0'
p1094
I204075
sS'restricted_stock_fill0'
p1095
I514847
sg34
I514847
sg35
I236457
sg36
Fnan
sS'other_fill0'
p1096
I2630
sg38
I875889
sS'long_term_incentive_fill0'
p1097
I175000
sS'loan_advances_fill0'
p1098
I0
sg41
I2549361
sS'bonus_fill0'
p1099
I200000
sS'director_fees_fill0'
p1100
I0
ssS'MEYER JEROME J'
p1101
(dp1102
g3
g6
sg4
Fnan
sg5
g6
sS'restricted_stock_deferred_fill0'
p1103
I0
sS'expenses_fill0'
p1104
I2151
sg9
I2151
sS'salary_fill0'
p1105
I0
sS'exercised_stock_options_fill0'
p1106
I0
sg12
I00
sg13
I-38346
sg14
g6
sg16
g6
sg17
I0
sg18
g6
sg19
g6
sg20
g6
sg21
g6
sg22
g6
sS'total_stock_value_fill0'
p1107
I0
sg24
I38346
sg25
Fnan
sg26
g6
sS'total_payments_fill0'
p1108
I2151
sg28
g6
sg29
g6
sS'deferred_income_fill0'
p1109
I-38346
sg31
g6
sS'deferral_payments_fill0'
p1110
I0
sS'restricted_stock_fill0'
p1111
I0
sg34
g6
sg35
g6
sg36
Fnan
sS'other_fill0'
p1112
I0
sg38
I2151
sS'long_term_incentive_fill0'
p1113
I0
sS'loan_advances_fill0'
p1114
I0
sg41
g6
sS'bonus_fill0'
p1115
I0
sS'director_fees_fill0'
p1116
I38346
ssS'LAY KENNETH L'
p1117
(dp1118
g3
I4273
sg4
F3.4166666666666665
sg5
I202911
sS'restricted_stock_deferred_fill0'
p1119
I0
sS'expenses_fill0'
p1120
I99832
sg9
I99832
sS'salary_fill0'
p1121
I1072321
sS'exercised_stock_options_fill0'
p1122
I34348384
sg12
I01
sg13
I-300000
sg14
S'kenneth.lay@enron.com'
p1123
sg16
I3600000
sg17
I1
sg18
g6
sg19
I2411
sg20
I81525000
sg21
I36
sg22
I10359729
sS'total_stock_value_fill0'
p1124
I49110078
sg24
g6
sg25
F0.003744441844137608
sg26
I7000000
sS'total_payments_fill0'
p1125
I103559793
sg28
I49110078
sg29
I123
sS'deferred_income_fill0'
p1126
I-300000
sg31
I16
sS'deferral_payments_fill0'
p1127
I202911
sS'restricted_stock_fill0'
p1128
I14761694
sg34
I14761694
sg35
I1072321
sg36
F0.5642405803884858
sS'other_fill0'
p1129
I10359729
sg38
I103559793
sS'long_term_incentive_fill0'
p1130
I3600000
sS'loan_advances_fill0'
p1131
I81525000
sg41
I34348384
sS'bonus_fill0'
p1132
I7000000
sS'director_fees_fill0'
p1133
I0
ssS'BUTTS ROBERT H'
p1134
(dp1135
g3
g6
sg4
Fnan
sg5
g6
sS'restricted_stock_deferred_fill0'
p1136
I0
sS'expenses_fill0'
p1137
I9410
sg9
I9410
sS'salary_fill0'
p1138
I261516
sS'exercised_stock_options_fill0'
p1139
I0
sg12
I00
sg13
I-75000
sg14
S'bob.butts@enron.com'
p1140
sg16
I175000
sg17
I0
sg18
g6
sg19
g6
sg20
g6
sg21
g6
sg22
I150656
sS'total_stock_value_fill0'
p1141
I417619
sg24
g6
sg25
Fnan
sg26
I750000
sS'total_payments_fill0'
p1142
I1271582
sg28
I417619
sg29
g6
sS'deferred_income_fill0'
p1143
I-75000
sg31
g6
sS'deferral_payments_fill0'
p1144
I0
sS'restricted_stock_fill0'
p1145
I417619
sg34
I417619
sg35
I261516
sg36
Fnan
sS'other_fill0'
p1146
I150656
sg38
I1271582
sS'long_term_incentive_fill0'
p1147
I175000
sS'loan_advances_fill0'
p1148
I0
sg41
g6
sS'bonus_fill0'
p1149
I750000
sS'director_fees_fill0'
p1150
I0
ssS'OLSON CINDY K'
p1151
(dp1152
g3
I1184
sg4
F0.38461538461538464
sg5
I77716
sS'restricted_stock_deferred_fill0'
p1153
I0
sS'expenses_fill0'
p1154
I63791
sg9
I63791
sS'salary_fill0'
p1155
I329078
sS'exercised_stock_options_fill0'
p1156
I1637034
sg12
I00
sg13
g6
sg14
S'cindy.olson@enron.com'
p1157
sg16
I100000
sg17
I1
sg18
g6
sg19
I856
sg20
g6
sg21
I52
sg22
I972
sS'total_stock_value_fill0'
p1158
I2606763
sg24
g6
sg25
F0.01266891891891892
sg26
I750000
sS'total_payments_fill0'
p1159
I1321557
sg28
I2606763
sg29
I20
sS'deferred_income_fill0'
p1160
I0
sg31
I15
sS'deferral_payments_fill0'
p1161
I77716
sS'restricted_stock_fill0'
p1162
I969729
sg34
I969729
sg35
I329078
sg36
F0.722972972972973
sS'other_fill0'
p1163
I972
sg38
I1321557
sS'long_term_incentive_fill0'
p1164
I100000
sS'loan_advances_fill0'
p1165
I0
sg41
I1637034
sS'bonus_fill0'
p1166
I750000
sS'director_fees_fill0'
p1167
I0
ssS'MCDONALD REBECCA'
p1168
(dp1169
g3
I894
sg4
F4.153846153846154
sg5
g6
sS'restricted_stock_deferred_fill0'
p1170
I0
sS'expenses_fill0'
p1171
I0
sg9
g6
sS'salary_fill0'
p1172
I0
sS'exercised_stock_options_fill0'
p1173
I757301
sg12
I00
sg13
g6
sg14
S'rebecca.mcdonald@enron.com'
p1174
sg16
g6
sg17
I1
sg18
g6
sg19
I720
sg20
g6
sg21
I13
sg22
g6
sS'total_stock_value_fill0'
p1175
I1691366
sg24
g6
sg25
F0.0011185682326621924
sg26
g6
sS'total_payments_fill0'
p1176
I0
sg28
I1691366
sg29
I54
sS'deferred_income_fill0'
p1177
I0
sg31
I1
sS'deferral_payments_fill0'
p1178
I0
sS'restricted_stock_fill0'
p1179
I934065
sg34
I934065
sg35
g6
sg36
F0.8053691275167785
sS'other_fill0'
p1180
I0
sg38
g6
sS'long_term_incentive_fill0'
p1181
I0
sS'loan_advances_fill0'
p1182
I0
sg41
I757301
sS'bonus_fill0'
p1183
I0
sS'director_fees_fill0'
p1184
I0
ssS'CUMBERLAND MICHAEL S'
p1185
(dp1186
g3
g6
sg4
Fnan
sg5
g6
sS'restricted_stock_deferred_fill0'
p1187
I0
sS'expenses_fill0'
p1188
I22344
sg9
I22344
sS'salary_fill0'
p1189
I184899
sS'exercised_stock_options_fill0'
p1190
I0
sg12
I00
sg13
g6
sg14
g6
sg16
I275000
sg17
I0
sg18
g6
sg19
g6
sg20
g6
sg21
g6
sg22
I713
sS'total_stock_value_fill0'
p1191
I207940
sg24
g6
sg25
Fnan
sg26
I325000
sS'total_payments_fill0'
p1192
I807956
sg28
I207940
sg29
g6
sS'deferred_income_fill0'
p1193
I0
sg31
g6
sS'deferral_payments_fill0'
p1194
I0
sS'restricted_stock_fill0'
p1195
I207940
sg34
I207940
sg35
I184899
sg36
Fnan
sS'other_fill0'
p1196
I713
sg38
I807956
sS'long_term_incentive_fill0'
p1197
I275000
sS'loan_advances_fill0'
p1198
I0
sg41
g6
sS'bonus_fill0'
p1199
I325000
sS'director_fees_fill0'
p1200
I0
ssS'GAHN ROBERT S'
p1201
(dp1202
g3
g6
sg4
Fnan
sg5
I73122
sS'restricted_stock_deferred_fill0'
p1203
I0
sS'expenses_fill0'
p1204
I50080
sg9
I50080
sS'salary_fill0'
p1205
I192008
sS'exercised_stock_options_fill0'
p1206
I83237
sg12
I00
sg13
I-1042
sg14
g6
sg16
g6
sg17
I0
sg18
g6
sg19
g6
sg20
g6
sg21
g6
sg22
I76547
sS'total_stock_value_fill0'
p1207
I318607
sg24
g6
sg25
Fnan
sg26
I509870
sS'total_payments_fill0'
p1208
I900585
sg28
I318607
sg29
g6
sS'deferred_income_fill0'
p1209
I-1042
sg31
g6
sS'deferral_payments_fill0'
p1210
I73122
sS'restricted_stock_fill0'
p1211
I235370
sg34
I235370
sg35
I192008
sg36
Fnan
sS'other_fill0'
p1212
I76547
sg38
I900585
sS'long_term_incentive_fill0'
p1213
I0
sS'loan_advances_fill0'
p1214
I0
sg41
I83237
sS'bonus_fill0'
p1215
I509870
sS'director_fees_fill0'
p1216
I0
ssS'MCCLELLAN GEORGE'
p1217
(dp1218
g3
I1744
sg4
F1.0612244897959184
sg5
g6
sS'restricted_stock_deferred_fill0'
p1219
I0
sS'expenses_fill0'
p1220
I228763
sg9
I228763
sS'salary_fill0'
p1221
I263413
sS'exercised_stock_options_fill0'
p1222
I506765
sg12
I00
sg13
I-125000
sg14
S'george.mcclellan@enron.com'
p1223
sg16
g6
sg17
I1
sg18
g6
sg19
I1469
sg20
g6
sg21
I49
sg22
I51587
sS'total_stock_value_fill0'
p1224
I947861
sg24
g6
sg25
F0.0
sg26
I900000
sS'total_payments_fill0'
p1225
I1318763
sg28
I947861
sg29
I52
sS'deferred_income_fill0'
p1226
I-125000
sg31
I0
sS'deferral_payments_fill0'
p1227
I0
sS'restricted_stock_fill0'
p1228
I441096
sg34
I441096
sg35
I263413
sg36
F0.8423165137614679
sS'other_fill0'
p1229
I51587
sg38
I1318763
sS'long_term_incentive_fill0'
p1230
I0
sS'loan_advances_fill0'
p1231
I0
sg41
I506765
sS'bonus_fill0'
p1232
I900000
sS'director_fees_fill0'
p1233
I0
ssS'HERMANN ROBERT J'
p1234
(dp1235
g3
g6
sg4
Fnan
sg5
g6
sS'restricted_stock_deferred_fill0'
p1236
I0
sS'expenses_fill0'
p1237
I48357
sg9
I48357
sS'salary_fill0'
p1238
I262663
sS'exercised_stock_options_fill0'
p1239
I187500
sg12
I00
sg13
I-280000
sg14
S'robert.hermann@enron.com'
p1240
sg16
I150000
sg17
I0
sg18
g6
sg19
g6
sg20
g6
sg21
g6
sg22
I416441
sS'total_stock_value_fill0'
p1241
I668132
sg24
g6
sg25
Fnan
sg26
I700000
sS'total_payments_fill0'
p1242
I1297461
sg28
I668132
sg29
g6
sS'deferred_income_fill0'
p1243
I-280000
sg31
g6
sS'deferral_payments_fill0'
p1244
I0
sS'restricted_stock_fill0'
p1245
I480632
sg34
I480632
sg35
I262663
sg36
Fnan
sS'other_fill0'
p1246
I416441
sg38
I1297461
sS'long_term_incentive_fill0'
p1247
I150000
sS'loan_advances_fill0'
p1248
I0
sg41
I187500
sS'bonus_fill0'
p1249
I700000
sS'director_fees_fill0'
p1250
I0
ssS'SCRIMSHAW MATTHEW'
p1251
(dp1252
g3
g6
sg4
Fnan
sg5
g6
sS'restricted_stock_deferred_fill0'
p1253
I0
sS'expenses_fill0'
p1254
I0
sg9
g6
sS'salary_fill0'
p1255
I0
sS'exercised_stock_options_fill0'
p1256
I759557
sg12
I00
sg13
g6
sg14
S'matthew.scrimshaw@enron.com'
p1257
sg16
g6
sg17
I0
sg18
g6
sg19
g6
sg20
g6
sg21
g6
sg22
g6
sS'total_stock_value_fill0'
p1258
I759557
sg24
g6
sg25
Fnan
sg26
g6
sS'total_payments_fill0'
p1259
I0
sg28
I759557
sg29
g6
sS'deferred_income_fill0'
p1260
I0
sg31
g6
sS'deferral_payments_fill0'
p1261
I0
sS'restricted_stock_fill0'
p1262
I0
sg34
g6
sg35
g6
sg36
Fnan
sS'other_fill0'
p1263
I0
sg38
g6
sS'long_term_incentive_fill0'
p1264
I0
sS'loan_advances_fill0'
p1265
I0
sg41
I759557
sS'bonus_fill0'
p1266
I0
sS'director_fees_fill0'
p1267
I0
ssS'GATHMANN WILLIAM D'
p1268
(dp1269
g3
g6
sg4
Fnan
sg5
g6
sS'restricted_stock_deferred_fill0'
p1270
I-72419
sS'expenses_fill0'
p1271
I0
sg9
g6
sS'salary_fill0'
p1272
I0
sS'exercised_stock_options_fill0'
p1273
I1753766
sg12
I00
sg13
g6
sg14
g6
sg16
g6
sg17
I0
sg18
I-72419
sg19
g6
sg20
g6
sg21
g6
sg22
g6
sS'total_stock_value_fill0'
p1274
I1945360
sg24
g6
sg25
Fnan
sg26
g6
sS'total_payments_fill0'
p1275
I0
sg28
I1945360
sg29
g6
sS'deferred_income_fill0'
p1276
I0
sg31
g6
sS'deferral_payments_fill0'
p1277
I0
sS'restricted_stock_fill0'
p1278
I264013
sg34
I264013
sg35
g6
sg36
Fnan
sS'other_fill0'
p1279
I0
sg38
g6
sS'long_term_incentive_fill0'
p1280
I0
sS'loan_advances_fill0'
p1281
I0
sg41
I1753766
sS'bonus_fill0'
p1282
I0
sS'director_fees_fill0'
p1283
I0
ssS'HAEDICKE MARK E'
p1284
(dp1285
g3
I4009
sg4
F0.09273570324574962
sg5
I2157527
sS'restricted_stock_deferred_fill0'
p1286
I-329825
sS'expenses_fill0'
p1287
I76169
sg9
I76169
sS'salary_fill0'
p1288
I374125
sS'exercised_stock_options_fill0'
p1289
I608750
sg12
I00
sg13
I-934484
sg14
S'mark.haedicke@enron.com'
p1290
sg16
I983346
sg17
I1
sg18
I-329825
sg19
I1847
sg20
g6
sg21
I1941
sg22
I52382
sS'total_stock_value_fill0'
p1291
I803094
sg24
g6
sg25
F0.015215764529807932
sg26
I1150000
sS'total_payments_fill0'
p1292
I3859065
sg28
I803094
sg29
I180
sS'deferred_income_fill0'
p1293
I-934484
sg31
I61
sS'deferral_payments_fill0'
p1294
I2157527
sS'restricted_stock_fill0'
p1295
I524169
sg34
I524169
sg35
I374125
sg36
F0.4607133948615615
sS'other_fill0'
p1296
I52382
sg38
I3859065
sS'long_term_incentive_fill0'
p1297
I983346
sS'loan_advances_fill0'
p1298
I0
sg41
I608750
sS'bonus_fill0'
p1299
I1150000
sS'director_fees_fill0'
p1300
I0
ssS'BOWEN JR RAYMOND M'
p1301
(dp1302
g3
I1858
sg4
F5.185185185185185
sg5
g6
sS'restricted_stock_deferred_fill0'
p1303
I0
sS'expenses_fill0'
p1304
I65907
sg9
I65907
sS'salary_fill0'
p1305
I278601
sS'exercised_stock_options_fill0'
p1306
I0
sg12
I01
sg13
I-833
sg14
S'raymond.bowen@enron.com'
p1307
sg16
I974293
sg17
I1
sg18
g6
sg19
I1593
sg20
g6
sg21
I27
sg22
I1621
sS'total_stock_value_fill0'
p1308
I252055
sg24
g6
sg25
F0.008073196986006458
sg26
I1350000
sS'total_payments_fill0'
p1309
I2669589
sg28
I252055
sg29
I140
sS'deferred_income_fill0'
p1310
I-833
sg31
I15
sS'deferral_payments_fill0'
p1311
I0
sS'restricted_stock_fill0'
p1312
I252055
sg34
I252055
sg35
I278601
sg36
F0.8573735199138859
sS'other_fill0'
p1313
I1621
sg38
I2669589
sS'long_term_incentive_fill0'
p1314
I974293
sS'loan_advances_fill0'
p1315
I0
sg41
g6
sS'bonus_fill0'
p1316
I1350000
sS'director_fees_fill0'
p1317
I0
ssS'GILLIS JOHN'
p1318
(dp1319
g3
g6
sg4
Fnan
sg5
g6
sS'restricted_stock_deferred_fill0'
p1320
I0
sS'expenses_fill0'
p1321
I0
sg9
g6
sS'salary_fill0'
p1322
I0
sS'exercised_stock_options_fill0'
p1323
I9803
sg12
I00
sg13
g6
sg14
g6
sg16
g6
sg17
I0
sg18
g6
sg19
g6
sg20
g6
sg21
g6
sg22
g6
sS'total_stock_value_fill0'
p1324
I85641
sg24
g6
sg25
Fnan
sg26
g6
sS'total_payments_fill0'
p1325
I0
sg28
I85641
sg29
g6
sS'deferred_income_fill0'
p1326
I0
sg31
g6
sS'deferral_payments_fill0'
p1327
I0
sS'restricted_stock_fill0'
p1328
I75838
sg34
I75838
sg35
g6
sg36
Fnan
sS'other_fill0'
p1329
I0
sg38
g6
sS'long_term_incentive_fill0'
p1330
I0
sS'loan_advances_fill0'
p1331
I0
sg41
I9803
sS'bonus_fill0'
p1332
I0
sS'director_fees_fill0'
p1333
I0
ssS'FITZGERALD JAY L'
p1334
(dp1335
g3
I936
sg4
F0.0625
sg5
g6
sS'restricted_stock_deferred_fill0'
p1336
I0
sS'expenses_fill0'
p1337
I23870
sg9
I23870
sS'salary_fill0'
p1338
I199157
sS'exercised_stock_options_fill0'
p1339
I664461
sg12
I00
sg13
g6
sg14
S'jay.fitzgerald@enron.com'
p1340
sg16
I556416
sg17
I1
sg18
g6
sg19
I723
sg20
g6
sg21
I16
sg22
I285414
sS'total_stock_value_fill0'
p1341
I1621236
sg24
g6
sg25
F0.008547008547008548
sg26
I350000
sS'total_payments_fill0'
p1342
I1414857
sg28
I1621236
sg29
I1
sS'deferred_income_fill0'
p1343
I0
sg31
I8
sS'deferral_payments_fill0'
p1344
I0
sS'restricted_stock_fill0'
p1345
I956775
sg34
I956775
sg35
I199157
sg36
F0.7724358974358975
sS'other_fill0'
p1346
I285414
sg38
I1414857
sS'long_term_incentive_fill0'
p1347
I556416
sS'loan_advances_fill0'
p1348
I0
sg41
I664461
sS'bonus_fill0'
p1349
I350000
sS'director_fees_fill0'
p1350
I0
ssS'MORAN MICHAEL P'
p1351
(dp1352
g3
I672
sg4
F0.0
sg5
g6
sS'restricted_stock_deferred_fill0'
p1353
I0
sS'expenses_fill0'
p1354
I0
sg9
g6
sS'salary_fill0'
p1355
I0
sS'exercised_stock_options_fill0'
p1356
I59539
sg12
I00
sg13
g6
sg14
S'michael.moran@enron.com'
p1357
sg16
g6
sg17
I1
sg18
g6
sg19
I127
sg20
g6
sg21
I19
sg22
g6
sS'total_stock_value_fill0'
p1358
I221141
sg24
g6
sg25
F0.0
sg26
g6
sS'total_payments_fill0'
p1359
I0
sg28
I221141
sg29
I0
sS'deferred_income_fill0'
p1360
I0
sg31
I0
sS'deferral_payments_fill0'
p1361
I0
sS'restricted_stock_fill0'
p1362
I161602
sg34
I161602
sg35
g6
sg36
F0.18898809523809523
sS'other_fill0'
p1363
I0
sg38
g6
sS'long_term_incentive_fill0'
p1364
I0
sS'loan_advances_fill0'
p1365
I0
sg41
I59539
sS'bonus_fill0'
p1366
I0
sS'director_fees_fill0'
p1367
I0
ssS'REDMOND BRIAN L'
p1368
(dp1369
g3
I1671
sg4
F0.9230769230769231
sg5
g6
sS'restricted_stock_deferred_fill0'
p1370
I0
sS'expenses_fill0'
p1371
I14689
sg9
I14689
sS'salary_fill0'
p1372
I96840
sS'exercised_stock_options_fill0'
p1373
I7509039
sg12
I00
sg13
g6
sg14
S'brian.redmond@enron.com'
p1374
sg16
g6
sg17
I1
sg18
g6
sg19
I1063
sg20
g6
sg21
I221
sg22
g6
sS'total_stock_value_fill0'
p1375
I7890324
sg24
g6
sg25
F0.029323758228605626
sg26
g6
sS'total_payments_fill0'
p1376
I111529
sg28
I7890324
sg29
I204
sS'deferred_income_fill0'
p1377
I0
sg31
I49
sS'deferral_payments_fill0'
p1378
I0
sS'restricted_stock_fill0'
p1379
I381285
sg34
I381285
sg35
I96840
sg36
F0.6361460203470976
sS'other_fill0'
p1380
I0
sg38
I111529
sS'long_term_incentive_fill0'
p1381
I0
sS'loan_advances_fill0'
p1382
I0
sg41
I7509039
sS'bonus_fill0'
p1383
I0
sS'director_fees_fill0'
p1384
I0
ssS'BAZELIDES PHILIP J'
p1385
(dp1386
g3
g6
sg4
Fnan
sg5
I684694
sS'restricted_stock_deferred_fill0'
p1387
I0
sS'expenses_fill0'
p1388
I0
sg9
g6
sS'salary_fill0'
p1389
I80818
sS'exercised_stock_options_fill0'
p1390
I1599641
sg12
I00
sg13
g6
sg14
g6
sg16
I93750
sg17
I0
sg18
g6
sg19
g6
sg20
g6
sg21
g6
sg22
I874
sS'total_stock_value_fill0'
p1391
I1599641
sg24
g6
sg25
Fnan
sg26
g6
sS'total_payments_fill0'
p1392
I860136
sg28
I1599641
sg29
g6
sS'deferred_income_fill0'
p1393
I0
sg31
g6
sS'deferral_payments_fill0'
p1394
I684694
sS'restricted_stock_fill0'
p1395
I0
sg34
g6
sg35
I80818
sg36
Fnan
sS'other_fill0'
p1396
I874
sg38
I860136
sS'long_term_incentive_fill0'
p1397
I93750
sS'loan_advances_fill0'
p1398
I0
sg41
I1599641
sS'bonus_fill0'
p1399
I0
sS'director_fees_fill0'
p1400
I0
ssS'BELDEN TIMOTHY N'
p1401
(dp1402
g3
I7991
sg4
F0.47107438016528924
sg5
I2144013
sS'restricted_stock_deferred_fill0'
p1403
I0
sS'expenses_fill0'
p1404
I17355
sg9
I17355
sS'salary_fill0'
p1405
I213999
sS'exercised_stock_options_fill0'
p1406
I953136
sg12
I01
sg13
I-2334434
sg14
S'tim.belden@enron.com'
p1407
sg16
g6
sg17
I1
sg18
g6
sg19
I5521
sg20
g6
sg21
I484
sg22
I210698
sS'total_stock_value_fill0'
p1408
I1110705
sg24
g6
sg25
F0.013515204605180828
sg26
I5249999
sS'total_payments_fill0'
p1409
I5501630
sg28
I1110705
sg29
I228
sS'deferred_income_fill0'
p1410
I-2334434
sg31
I108
sS'deferral_payments_fill0'
p1411
I2144013
sS'restricted_stock_fill0'
p1412
I157569
sg34
I157569
sg35
I213999
sg36
F0.6909022650481792
sS'other_fill0'
p1413
I210698
sg38
I5501630
sS'long_term_incentive_fill0'
p1414
I0
sS'loan_advances_fill0'
p1415
I0
sg41
I953136
sS'bonus_fill0'
p1416
I5249999
sS'director_fees_fill0'
p1417
I0
ssS'DURAN WILLIAM D'
p1418
(dp1419
g3
I904
sg4
F8.833333333333334
sg5
g6
sS'restricted_stock_deferred_fill0'
p1420
I0
sS'expenses_fill0'
p1421
I25785
sg9
I25785
sS'salary_fill0'
p1422
I210692
sS'exercised_stock_options_fill0'
p1423
I1451869
sg12
I00
sg13
g6
sg14
S'w.duran@enron.com'
p1424
sg16
I1105218
sg17
I1
sg18
g6
sg19
I599
sg20
g6
sg21
I12
sg22
I1568
sS'total_stock_value_fill0'
p1425
I1640910
sg24
g6
sg25
F0.00331858407079646
sg26
I750000
sS'total_payments_fill0'
p1426
I2093263
sg28
I1640910
sg29
I106
sS'deferred_income_fill0'
p1427
I0
sg31
I3
sS'deferral_payments_fill0'
p1428
I0
sS'restricted_stock_fill0'
p1429
I189041
sg34
I189041
sg35
I210692
sg36
F0.6626106194690266
sS'other_fill0'
p1430
I1568
sg38
I2093263
sS'long_term_incentive_fill0'
p1431
I1105218
sS'loan_advances_fill0'
p1432
I0
sg41
I1451869
sS'bonus_fill0'
p1433
I750000
sS'director_fees_fill0'
p1434
I0
ssS'THORN TERENCE H'
p1435
(dp1436
g3
I266
sg4
F0.0
sg5
I16586
sS'restricted_stock_deferred_fill0'
p1437
I0
sS'expenses_fill0'
p1438
I46145
sg9
I46145
sS'salary_fill0'
p1439
I222093
sS'exercised_stock_options_fill0'
p1440
I4452476
sg12
I00
sg13
g6
sg14
S'terence.thorn@enron.com'
p1441
sg16
I200000
sg17
I1
sg18
g6
sg19
I73
sg20
g6
sg21
I41
sg22
I426629
sS'total_stock_value_fill0'
p1442
I4817796
sg24
g6
sg25
F0.0
sg26
g6
sS'total_payments_fill0'
p1443
I911453
sg28
I4817796
sg29
I0
sS'deferred_income_fill0'
p1444
I0
sg31
I0
sS'deferral_payments_fill0'
p1445
I16586
sS'restricted_stock_fill0'
p1446
I365320
sg34
I365320
sg35
I222093
sg36
F0.2744360902255639
sS'other_fill0'
p1447
I426629
sg38
I911453
sS'long_term_incentive_fill0'
p1448
I200000
sS'loan_advances_fill0'
p1449
I0
sg41
I4452476
sS'bonus_fill0'
p1450
I0
sS'director_fees_fill0'
p1451
I0
ssS'FASTOW ANDREW S'
p1452
(dp1453
g3
g6
sg4
Fnan
sg5
g6
sS'restricted_stock_deferred_fill0'
p1454
I0
sS'expenses_fill0'
p1455
I55921
sg9
I55921
sS'salary_fill0'
p1456
I440698
sS'exercised_stock_options_fill0'
p1457
I0
sg12
I01
sg13
I-1386055
sg14
S'andrew.fastow@enron.com'
p1458
sg16
I1736055
sg17
I0
sg18
g6
sg19
g6
sg20
g6
sg21
g6
sg22
I277464
sS'total_stock_value_fill0'
p1459
I1794412
sg24
g6
sg25
Fnan
sg26
I1300000
sS'total_payments_fill0'
p1460
I2424083
sg28
I1794412
sg29
g6
sS'deferred_income_fill0'
p1461
I-1386055
sg31
g6
sS'deferral_payments_fill0'
p1462
I0
sS'restricted_stock_fill0'
p1463
I1794412
sg34
I1794412
sg35
I440698
sg36
Fnan
sS'other_fill0'
p1464
I277464
sg38
I2424083
sS'long_term_incentive_fill0'
p1465
I1736055
sS'loan_advances_fill0'
p1466
I0
sg41
g6
sS'bonus_fill0'
p1467
I1300000
sS'director_fees_fill0'
p1468
I0
ssS'FOY JOE'
p1469
(dp1470
g3
I57
sg4
F0.0
sg5
I181755
sS'restricted_stock_deferred_fill0'
p1471
I0
sS'expenses_fill0'
p1472
I0
sg9
g6
sS'salary_fill0'
p1473
I0
sS'exercised_stock_options_fill0'
p1474
I343434
sg12
I00
sg13
g6
sg14
S'tracy.foy@enron.com'
p1475
sg16
g6
sg17
I1
sg18
g6
sg19
I2
sg20
g6
sg21
I13
sg22
g6
sS'total_stock_value_fill0'
p1476
I343434
sg24
g6
sg25
F0.0
sg26
g6
sS'total_payments_fill0'
p1477
I181755
sg28
I343434
sg29
I0
sS'deferred_income_fill0'
p1478
I0
sg31
I0
sS'deferral_payments_fill0'
p1479
I181755
sS'restricted_stock_fill0'
p1480
I0
sg34
g6
sg35
g6
sg36
F0.03508771929824561
sS'other_fill0'
p1481
I0
sg38
I181755
sS'long_term_incentive_fill0'
p1482
I0
sS'loan_advances_fill0'
p1483
I0
sg41
I343434
sS'bonus_fill0'
p1484
I0
sS'director_fees_fill0'
p1485
I0
ssS'CALGER CHRISTOPHER F'
p1486
(dp1487
g3
I2598
sg4
F1.3819444444444444
sg5
g6
sS'restricted_stock_deferred_fill0'
p1488
I0
sS'expenses_fill0'
p1489
I35818
sg9
I35818
sS'salary_fill0'
p1490
I240189
sS'exercised_stock_options_fill0'
p1491
I0
sg12
I01
sg13
I-262500
sg14
S'christopher.calger@enron.com'
p1492
sg16
I375304
sg17
I1
sg18
g6
sg19
I2188
sg20
g6
sg21
I144
sg22
I486
sS'total_stock_value_fill0'
p1493
I126027
sg24
g6
sg25
F0.00962278675904542
sg26
I1250000
sS'total_payments_fill0'
p1494
I1639297
sg28
I126027
sg29
I199
sS'deferred_income_fill0'
p1495
I-262500
sg31
I25
sS'deferral_payments_fill0'
p1496
I0
sS'restricted_stock_fill0'
p1497
I126027
sg34
I126027
sg35
I240189
sg36
F0.8421862971516552
sS'other_fill0'
p1498
I486
sg38
I1639297
sS'long_term_incentive_fill0'
p1499
I375304
sS'loan_advances_fill0'
p1500
I0
sg41
g6
sS'bonus_fill0'
p1501
I1250000
sS'director_fees_fill0'
p1502
I0
ssS'RICE KENNETH D'
p1503
(dp1504
g3
I905
sg4
F2.3333333333333335
sg5
g6
sS'restricted_stock_deferred_fill0'
p1505
I0
sS'expenses_fill0'
p1506
I46950
sg9
I46950
sS'salary_fill0'
p1507
I420636
sS'exercised_stock_options_fill0'
p1508
I19794175
sg12
I01
sg13
I-3504386
sg14
S'ken.rice@enron.com'
p1509
sg16
I1617011
sg17
I1
sg18
g6
sg19
I864
sg20
g6
sg21
I18
sg22
I174839
sS'total_stock_value_fill0'
p1510
I22542539
sg24
g6
sg25
F0.004419889502762431
sg26
I1750000
sS'total_payments_fill0'
p1511
I505050
sg28
I22542539
sg29
I42
sS'deferred_income_fill0'
p1512
I-3504386
sg31
I4
sS'deferral_payments_fill0'
p1513
I0
sS'restricted_stock_fill0'
p1514
I2748364
sg34
I2748364
sg35
I420636
sg36
F0.9546961325966851
sS'other_fill0'
p1515
I174839
sg38
I505050
sS'long_term_incentive_fill0'
p1516
I1617011
sS'loan_advances_fill0'
p1517
I0
sg41
I19794175
sS'bonus_fill0'
p1518
I1750000
sS'director_fees_fill0'
p1519
I0
ssS'KAMINSKI WINCENTY J'
p1520
(dp1521
g3
I4607
sg4
F0.002853563474387528
sg5
g6
sS'restricted_stock_deferred_fill0'
p1522
I0
sS'expenses_fill0'
p1523
I83585
sg9
I83585
sS'salary_fill0'
p1524
I275101
sS'exercised_stock_options_fill0'
p1525
I850010
sg12
I00
sg13
g6
sg14
S'vince.kaminski@enron.com'
p1526
sg16
I323466
sg17
I1
sg18
g6
sg19
I583
sg20
g6
sg21
I14368
sg22
I4669
sS'total_stock_value_fill0'
p1527
I976037
sg24
g6
sg25
F0.03711742999782939
sg26
I400000
sS'total_payments_fill0'
p1528
I1086821
sg28
I976037
sg29
I41
sS'deferred_income_fill0'
p1529
I0
sg31
I171
sS'deferral_payments_fill0'
p1530
I0
sS'restricted_stock_fill0'
p1531
I126027
sg34
I126027
sg35
I275101
sg36
F0.1265465595832429
sS'other_fill0'
p1532
I4669
sg38
I1086821
sS'long_term_incentive_fill0'
p1533
I323466
sS'loan_advances_fill0'
p1534
I0
sg41
I850010
sS'bonus_fill0'
p1535
I400000
sS'director_fees_fill0'
p1536
I0
ssS'LOCKHART EUGENE E'
p1537
(dp1538
g3
g6
sg4
Fnan
sg5
g6
sS'restricted_stock_deferred_fill0'
p1539
I0
sS'expenses_fill0'
p1540
I0
sg9
g6
sS'salary_fill0'
p1541
I0
sS'exercised_stock_options_fill0'
p1542
I0
sg12
I00
sg13
g6
sg14
g6
sg16
g6
sg17
I0
sg18
g6
sg19
g6
sg20
g6
sg21
g6
sg22
g6
sS'total_stock_value_fill0'
p1543
I0
sg24
g6
sg25
Fnan
sg26
g6
sS'total_payments_fill0'
p1544
I0
sg28
g6
sg29
g6
sS'deferred_income_fill0'
p1545
I0
sg31
g6
sS'deferral_payments_fill0'
p1546
I0
sS'restricted_stock_fill0'
p1547
I0
sg34
g6
sg35
g6
sg36
Fnan
sS'other_fill0'
p1548
I0
sg38
g6
sS'long_term_incentive_fill0'
p1549
I0
sS'loan_advances_fill0'
p1550
I0
sg41
g6
sS'bonus_fill0'
p1551
I0
sS'director_fees_fill0'
p1552
I0
ssS'COX DAVID'
p1553
(dp1554
g3
I102
sg4
F0.0
sg5
g6
sS'restricted_stock_deferred_fill0'
p1555
I0
sS'expenses_fill0'
p1556
I27861
sg9
I27861
sS'salary_fill0'
p1557
I314288
sS'exercised_stock_options_fill0'
p1558
I117551
sg12
I00
sg13
I-41250
sg14
S'chip.cox@enron.com'
p1559
sg16
g6
sg17
I1
sg18
g6
sg19
I71
sg20
g6
sg21
I33
sg22
I494
sS'total_stock_value_fill0'
p1560
I495633
sg24
g6
sg25
F0.0392156862745098
sg26
I800000
sS'total_payments_fill0'
p1561
I1101393
sg28
I495633
sg29
I0
sS'deferred_income_fill0'
p1562
I-41250
sg31
I4
sS'deferral_payments_fill0'
p1563
I0
sS'restricted_stock_fill0'
p1564
I378082
sg34
I378082
sg35
I314288
sg36
F0.696078431372549
sS'other_fill0'
p1565
I494
sg38
I1101393
sS'long_term_incentive_fill0'
p1566
I0
sS'loan_advances_fill0'
p1567
I0
sg41
I117551
sS'bonus_fill0'
p1568
I800000
sS'director_fees_fill0'
p1569
I0
ssS'OVERDYKE JR JERE C'
p1570
(dp1571
g3
g6
sg4
Fnan
sg5
g6
sS'restricted_stock_deferred_fill0'
p1572
I0
sS'expenses_fill0'
p1573
I18834
sg9
I18834
sS'salary_fill0'
p1574
I94941
sS'exercised_stock_options_fill0'
p1575
I5266578
sg12
I00
sg13
g6
sg14
S'jere.overdyke@enron.com'
p1576
sg16
I135836
sg17
I0
sg18
g6
sg19
g6
sg20
g6
sg21
g6
sg22
I176
sS'total_stock_value_fill0'
p1577
I7307594
sg24
g6
sg25
Fnan
sg26
g6
sS'total_payments_fill0'
p1578
I249787
sg28
I7307594
sg29
g6
sS'deferred_income_fill0'
p1579
I0
sg31
g6
sS'deferral_payments_fill0'
p1580
I0
sS'restricted_stock_fill0'
p1581
I2041016
sg34
I2041016
sg35
I94941
sg36
Fnan
sS'other_fill0'
p1582
I176
sg38
I249787
sS'long_term_incentive_fill0'
p1583
I135836
sS'loan_advances_fill0'
p1584
I0
sg41
I5266578
sS'bonus_fill0'
p1585
I0
sS'director_fees_fill0'
p1586
I0
ssS'PEREIRA PAULO V. FERRAZ'
p1587
(dp1588
g3
g6
sg4
Fnan
sg5
g6
sS'restricted_stock_deferred_fill0'
p1589
I0
sS'expenses_fill0'
p1590
I27942
sg9
I27942
sS'salary_fill0'
p1591
I0
sS'exercised_stock_options_fill0'
p1592
I0
sg12
I00
sg13
I-101250
sg14
g6
sg16
g6
sg17
I0
sg18
g6
sg19
g6
sg20
g6
sg21
g6
sg22
g6
sS'total_stock_value_fill0'
p1593
I0
sg24
I101250
sg25
Fnan
sg26
g6
sS'total_payments_fill0'
p1594
I27942
sg28
g6
sg29
g6
sS'deferred_income_fill0'
p1595
I-101250
sg31
g6
sS'deferral_payments_fill0'
p1596
I0
sS'restricted_stock_fill0'
p1597
I0
sg34
g6
sg35
g6
sg36
Fnan
sS'other_fill0'
p1598
I0
sg38
I27942
sS'long_term_incentive_fill0'
p1599
I0
sS'loan_advances_fill0'
p1600
I0
sg41
g6
sS'bonus_fill0'
p1601
I0
sS'director_fees_fill0'
p1602
I101250
ssS'STABLER FRANK'
p1603
(dp1604
g3
g6
sg4
Fnan
sg5
g6
sS'restricted_stock_deferred_fill0'
p1605
I0
sS'expenses_fill0'
p1606
I16514
sg9
I16514
sS'salary_fill0'
p1607
I239502
sS'exercised_stock_options_fill0'
p1608
I0
sg12
I00
sg13
g6
sg14
S'frank.stabler@enron.com'
p1609
sg16
g6
sg17
I0
sg18
g6
sg19
g6
sg20
g6
sg21
g6
sg22
I356071
sS'total_stock_value_fill0'
p1610
I511734
sg24
g6
sg25
Fnan
sg26
I500000
sS'total_payments_fill0'
p1611
I1112087
sg28
I511734
sg29
g6
sS'deferred_income_fill0'
p1612
I0
sg31
g6
sS'deferral_payments_fill0'
p1613
I0
sS'restricted_stock_fill0'
p1614
I511734
sg34
I511734
sg35
I239502
sg36
Fnan
sS'other_fill0'
p1615
I356071
sg38
I1112087
sS'long_term_incentive_fill0'
p1616
I0
sS'loan_advances_fill0'
p1617
I0
sg41
g6
sS'bonus_fill0'
p1618
I500000
sS'director_fees_fill0'
p1619
I0
ssS'SKILLING JEFFREY K'
p1620
(dp1621
g3
I3627
sg4
F0.8148148148148148
sg5
g6
sS'restricted_stock_deferred_fill0'
p1622
I0
sS'expenses_fill0'
p1623
I29336
sg9
I29336
sS'salary_fill0'
p1624
I1111258
sS'exercised_stock_options_fill0'
p1625
I19250000
sg12
I01
sg13
g6
sg14
S'jeff.skilling@enron.com'
p1626
sg16
I1920000
sg17
I1
sg18
g6
sg19
I2042
sg20
g6
sg21
I108
sg22
I22122
sS'total_stock_value_fill0'
p1627
I26093672
sg24
g6
sg25
F0.008271298593879239
sg26
I5600000
sS'total_payments_fill0'
p1628
I8682716
sg28
I26093672
sg29
I88
sS'deferred_income_fill0'
p1629
I0
sg31
I30
sS'deferral_payments_fill0'
p1630
I0
sS'restricted_stock_fill0'
p1631
I6843672
sg34
I6843672
sg35
I1111258
sg36
F0.5629997242900469
sS'other_fill0'
p1632
I22122
sg38
I8682716
sS'long_term_incentive_fill0'
p1633
I1920000
sS'loan_advances_fill0'
p1634
I0
sg41
I19250000
sS'bonus_fill0'
p1635
I5600000
sS'director_fees_fill0'
p1636
I0
ssS'BLAKE JR. NORMAN P'
p1637
(dp1638
g3
g6
sg4
Fnan
sg5
g6
sS'restricted_stock_deferred_fill0'
p1639
I0
sS'expenses_fill0'
p1640
I1279
sg9
I1279
sS'salary_fill0'
p1641
I0
sS'exercised_stock_options_fill0'
p1642
I0
sg12
I00
sg13
I-113784
sg14
g6
sg16
g6
sg17
I0
sg18
g6
sg19
g6
sg20
g6
sg21
g6
sg22
g6
sS'total_stock_value_fill0'
p1643
I0
sg24
I113784
sg25
Fnan
sg26
g6
sS'total_payments_fill0'
p1644
I1279
sg28
g6
sg29
g6
sS'deferred_income_fill0'
p1645
I-113784
sg31
g6
sS'deferral_payments_fill0'
p1646
I0
sS'restricted_stock_fill0'
p1647
I0
sg34
g6
sg35
g6
sg36
Fnan
sS'other_fill0'
p1648
I0
sg38
I1279
sS'long_term_incentive_fill0'
p1649
I0
sS'loan_advances_fill0'
p1650
I0
sg41
g6
sS'bonus_fill0'
p1651
I0
sS'director_fees_fill0'
p1652
I113784
ssS'SHERRICK JEFFREY B'
p1653
(dp1654
g3
I613
sg4
F1.56
sg5
g6
sS'restricted_stock_deferred_fill0'
p1655
I0
sS'expenses_fill0'
p1656
I0
sg9
g6
sS'salary_fill0'
p1657
I0
sS'exercised_stock_options_fill0'
p1658
I1426469
sg12
I00
sg13
g6
sg14
S'jeffrey.sherrick@enron.com'
p1659
sg16
g6
sg17
I1
sg18
g6
sg19
I583
sg20
g6
sg21
I25
sg22
g6
sS'total_stock_value_fill0'
p1660
I1832468
sg24
g6
sg25
F0.02936378466557912
sg26
g6
sS'total_payments_fill0'
p1661
I0
sg28
I1832468
sg29
I39
sS'deferred_income_fill0'
p1662
I0
sg31
I18
sS'deferral_payments_fill0'
p1663
I0
sS'restricted_stock_fill0'
p1664
I405999
sg34
I405999
sg35
g6
sg36
F0.9510603588907015
sS'other_fill0'
p1665
I0
sg38
g6
sS'long_term_incentive_fill0'
p1666
I0
sS'loan_advances_fill0'
p1667
I0
sg41
I1426469
sS'bonus_fill0'
p1668
I0
sS'director_fees_fill0'
p1669
I0
ssS'PRENTICE JAMES'
p1670
(dp1671
g3
g6
sg4
Fnan
sg5
I564348
sS'restricted_stock_deferred_fill0'
p1672
I0
sS'expenses_fill0'
p1673
I0
sg9
g6
sS'salary_fill0'
p1674
I0
sS'exercised_stock_options_fill0'
p1675
I886231
sg12
I00
sg13
g6
sg14
S'james.prentice@enron.com'
p1676
sg16
g6
sg17
I0
sg18
g6
sg19
g6
sg20
g6
sg21
g6
sg22
g6
sS'total_stock_value_fill0'
p1677
I1095040
sg24
g6
sg25
Fnan
sg26
g6
sS'total_payments_fill0'
p1678
I564348
sg28
I1095040
sg29
g6
sS'deferred_income_fill0'
p1679
I0
sg31
g6
sS'deferral_payments_fill0'
p1680
I564348
sS'restricted_stock_fill0'
p1681
I208809
sg34
I208809
sg35
g6
sg36
Fnan
sS'other_fill0'
p1682
I0
sg38
I564348
sS'long_term_incentive_fill0'
p1683
I0
sS'loan_advances_fill0'
p1684
I0
sg41
I886231
sS'bonus_fill0'
p1685
I0
sS'director_fees_fill0'
p1686
I0
ssS'GRAY RODNEY'
p1687
(dp1688
g3
g6
sg4
Fnan
sg5
I93585
sS'restricted_stock_deferred_fill0'
p1689
I0
sS'expenses_fill0'
p1690
I0
sg9
g6
sS'salary_fill0'
p1691
I6615
sS'exercised_stock_options_fill0'
p1692
I0
sg12
I00
sg13
g6
sg14
g6
sg16
I365625
sg17
I0
sg18
g6
sg19
g6
sg20
g6
sg21
g6
sg22
I680833
sS'total_stock_value_fill0'
p1693
I0
sg24
g6
sg25
Fnan
sg26
g6
sS'total_payments_fill0'
p1694
I1146658
sg28
g6
sg29
g6
sS'deferred_income_fill0'
p1695
I0
sg31
g6
sS'deferral_payments_fill0'
p1696
I93585
sS'restricted_stock_fill0'
p1697
I0
sg34
g6
sg35
I6615
sg36
Fnan
sS'other_fill0'
p1698
I680833
sg38
I1146658
sS'long_term_incentive_fill0'
p1699
I365625
sS'loan_advances_fill0'
p1700
I0
sg41
g6
sS'bonus_fill0'
p1701
I0
sS'director_fees_fill0'
p1702
I0
ssS'PICKERING MARK R'
p1703
(dp1704
g3
I898
sg4
F0.1044776119402985
sg5
g6
sS'restricted_stock_deferred_fill0'
p1705
I0
sS'expenses_fill0'
p1706
I31653
sg9
I31653
sS'salary_fill0'
p1707
I655037
sS'exercised_stock_options_fill0'
p1708
I28798
sg12
I00
sg13
g6
sg14
S'mark.pickering@enron.com'
p1709
sg16
g6
sg17
I1
sg18
g6
sg19
I728
sg20
I400000
sg21
I67
sg22
g6
sS'total_stock_value_fill0'
p1710
I28798
sg24
g6
sg25
F0.0
sg26
I300000
sS'total_payments_fill0'
p1711
I1386690
sg28
I28798
sg29
I7
sS'deferred_income_fill0'
p1712
I0
sg31
I0
sS'deferral_payments_fill0'
p1713
I0
sS'restricted_stock_fill0'
p1714
I0
sg34
g6
sg35
I655037
sg36
F0.8106904231625836
sS'other_fill0'
p1715
I0
sg38
I1386690
sS'long_term_incentive_fill0'
p1716
I0
sS'loan_advances_fill0'
p1717
I400000
sg41
I28798
sS'bonus_fill0'
p1718
I300000
sS'director_fees_fill0'
p1719
I0
ssS'NOLES JAMES L'
p1720
(dp1721
g3
g6
sg4
Fnan
sg5
I774401
sS'restricted_stock_deferred_fill0'
p1722
I-94556
sS'expenses_fill0'
p1723
I0
sg9
g6
sS'salary_fill0'
p1724
I0
sS'exercised_stock_options_fill0'
p1725
I0
sg12
I00
sg13
g6
sg14
g6
sg16
g6
sg17
I0
sg18
I-94556
sg19
g6
sg20
g6
sg21
g6
sg22
g6
sS'total_stock_value_fill0'
p1726
I368705
sg24
g6
sg25
Fnan
sg26
g6
sS'total_payments_fill0'
p1727
I774401
sg28
I368705
sg29
g6
sS'deferred_income_fill0'
p1728
I0
sg31
g6
sS'deferral_payments_fill0'
p1729
I774401
sS'restricted_stock_fill0'
p1730
I463261
sg34
I463261
sg35
g6
sg36
Fnan
sS'other_fill0'
p1731
I0
sg38
I774401
sS'long_term_incentive_fill0'
p1732
I0
sS'loan_advances_fill0'
p1733
I0
sg41
g6
sS'bonus_fill0'
p1734
I0
sS'director_fees_fill0'
p1735
I0
ssS'KEAN STEVEN J'
p1736
(dp1737
g3
I12754
sg4
F0.020713123243083296
sg5
g6
sS'restricted_stock_deferred_fill0'
p1738
I0
sS'expenses_fill0'
p1739
I41953
sg9
I41953
sS'salary_fill0'
p1740
I404338
sS'exercised_stock_options_fill0'
p1741
I2022048
sg12
I00
sg13
g6
sg14
S'steven.kean@enron.com'
p1742
sg16
I300000
sg17
I1
sg18
g6
sg19
I3639
sg20
g6
sg21
I6759
sg22
I1231
sS'total_stock_value_fill0'
p1743
I6153642
sg24
g6
sg25
F0.03034342167163243
sg26
I1000000
sS'total_payments_fill0'
p1744
I1747522
sg28
I6153642
sg29
I140
sS'deferred_income_fill0'
p1745
I0
sg31
I387
sS'deferral_payments_fill0'
p1746
I0
sS'restricted_stock_fill0'
p1747
I4131594
sg34
I4131594
sg35
I404338
sg36
F0.2853222518425592
sS'other_fill0'
p1748
I1231
sg38
I1747522
sS'long_term_incentive_fill0'
p1749
I300000
sS'loan_advances_fill0'
p1750
I0
sg41
I2022048
sS'bonus_fill0'
p1751
I1000000
sS'director_fees_fill0'
p1752
I0
ssS'FOWLER PEGGY'
p1753
(dp1754
g3
I517
sg4
F0.0
sg5
g6
sS'restricted_stock_deferred_fill0'
p1755
I0
sS'expenses_fill0'
p1756
I0
sg9
g6
sS'salary_fill0'
p1757
I0
sS'exercised_stock_options_fill0'
p1758
I1324578
sg12
I00
sg13
g6
sg14
S'kulvinder.fowler@enron.com'
p1759
sg16
g6
sg17
I1
sg18
g6
sg19
I10
sg20
g6
sg21
I36
sg22
g6
sS'total_stock_value_fill0'
p1760
I1884748
sg24
g6
sg25
F0.0
sg26
g6
sS'total_payments_fill0'
p1761
I0
sg28
I1884748
sg29
I0
sS'deferred_income_fill0'
p1762
I0
sg31
I0
sS'deferral_payments_fill0'
p1763
I0
sS'restricted_stock_fill0'
p1764
I560170
sg34
I560170
sg35
g6
sg36
F0.019342359767891684
sS'other_fill0'
p1765
I0
sg38
g6
sS'long_term_incentive_fill0'
p1766
I0
sS'loan_advances_fill0'
p1767
I0
sg41
I1324578
sS'bonus_fill0'
p1768
I0
sS'director_fees_fill0'
p1769
I0
ssS'WASAFF GEORGE'
p1770
(dp1771
g3
I400
sg4
F0.7333333333333333
sg5
I831299
sS'restricted_stock_deferred_fill0'
p1772
I0
sS'expenses_fill0'
p1773
I0
sg9
g6
sS'salary_fill0'
p1774
I259996
sS'exercised_stock_options_fill0'
p1775
I1668260
sg12
I00
sg13
I-583325
sg14
S'george.wasaff@enron.com'
p1776
sg16
I200000
sg17
I1
sg18
g6
sg19
I337
sg20
g6
sg21
I30
sg22
I1425
sS'total_stock_value_fill0'
p1777
I2056427
sg24
g6
sg25
F0.0175
sg26
I325000
sS'total_payments_fill0'
p1778
I1034395
sg28
I2056427
sg29
I22
sS'deferred_income_fill0'
p1779
I-583325
sg31
I7
sS'deferral_payments_fill0'
p1780
I831299
sS'restricted_stock_fill0'
p1781
I388167
sg34
I388167
sg35
I259996
sg36
F0.8425
sS'other_fill0'
p1782
I1425
sg38
I1034395
sS'long_term_incentive_fill0'
p1783
I200000
sS'loan_advances_fill0'
p1784
I0
sg41
I1668260
sS'bonus_fill0'
p1785
I325000
sS'director_fees_fill0'
p1786
I0
ssS'WHITE JR THOMAS E'
p1787
(dp1788
g3
g6
sg4
Fnan
sg5
g6
sS'restricted_stock_deferred_fill0'
p1789
I0
sS'expenses_fill0'
p1790
I81353
sg9
I81353
sS'salary_fill0'
p1791
I317543
sS'exercised_stock_options_fill0'
p1792
I1297049
sg12
I00
sg13
g6
sg14
S'thomas.white@enron.com'
p1793
sg16
g6
sg17
I0
sg18
g6
sg19
g6
sg20
g6
sg21
g6
sg22
I1085463
sS'total_stock_value_fill0'
p1794
I15144123
sg24
g6
sg25
Fnan
sg26
I450000
sS'total_payments_fill0'
p1795
I1934359
sg28
I15144123
sg29
g6
sS'deferred_income_fill0'
p1796
I0
sg31
g6
sS'deferral_payments_fill0'
p1797
I0
sS'restricted_stock_fill0'
p1798
I13847074
sg34
I13847074
sg35
I317543
sg36
Fnan
sS'other_fill0'
p1799
I1085463
sg38
I1934359
sS'long_term_incentive_fill0'
p1800
I0
sS'loan_advances_fill0'
p1801
I0
sg41
I1297049
sS'bonus_fill0'
p1802
I450000
sS'director_fees_fill0'
p1803
I0
ssS'CHRISTODOULOU DIOMEDES'
p1804
(dp1805
g3
g6
sg4
Fnan
sg5
g6
sS'restricted_stock_deferred_fill0'
p1806
I0
sS'expenses_fill0'
p1807
I0
sg9
g6
sS'salary_fill0'
p1808
I0
sS'exercised_stock_options_fill0'
p1809
I5127155
sg12
I00
sg13
g6
sg14
S'diomedes.christodoulou@enron.com'
p1810
sg16
g6
sg17
I0
sg18
g6
sg19
g6
sg20
g6
sg21
g6
sg22
g6
sS'total_stock_value_fill0'
p1811
I6077885
sg24
g6
sg25
Fnan
sg26
g6
sS'total_payments_fill0'
p1812
I0
sg28
I6077885
sg29
g6
sS'deferred_income_fill0'
p1813
I0
sg31
g6
sS'deferral_payments_fill0'
p1814
I0
sS'restricted_stock_fill0'
p1815
I950730
sg34
I950730
sg35
g6
sg36
Fnan
sS'other_fill0'
p1816
I0
sg38
g6
sS'long_term_incentive_fill0'
p1817
I0
sS'loan_advances_fill0'
p1818
I0
sg41
I5127155
sS'bonus_fill0'
p1819
I0
sS'director_fees_fill0'
p1820
I0
ssS'ALLEN PHILLIP K'
p1821
(dp1822
g3
I2902
sg4
F0.0214123006833713
sg5
I2869717
sS'restricted_stock_deferred_fill0'
p1823
I-126027
sS'expenses_fill0'
p1824
I13868
sg9
I13868
sS'salary_fill0'
p1825
I201955
sS'exercised_stock_options_fill0'
p1826
I1729541
sg12
I00
sg13
I-3081055
sg14
S'phillip.allen@enron.com'
p1827
sg16
I304805
sg17
I1
sg18
I-126027
sg19
I1407
sg20
g6
sg21
I2195
sg22
I152
sS'total_stock_value_fill0'
p1828
I1729541
sg24
g6
sg25
F0.022398345968297727
sg26
I4175000
sS'total_payments_fill0'
p1829
I4484442
sg28
I1729541
sg29
I47
sS'deferred_income_fill0'
p1830
I-3081055
sg31
I65
sS'deferral_payments_fill0'
p1831
I2869717
sS'restricted_stock_fill0'
p1832
I126027
sg34
I126027
sg35
I201955
sg36
F0.4848380427291523
sS'other_fill0'
p1833
I152
sg38
I4484442
sS'long_term_incentive_fill0'
p1834
I304805
sS'loan_advances_fill0'
p1835
I0
sg41
I1729541
sS'bonus_fill0'
p1836
I4175000
sS'director_fees_fill0'
p1837
I0
ssS'SHARP VICTORIA T'
p1838
(dp1839
g3
I3136
sg4
F0.17647058823529413
sg5
I187469
sS'restricted_stock_deferred_fill0'
p1840
I0
sS'expenses_fill0'
p1841
I116337
sg9
I116337
sS'salary_fill0'
p1842
I248146
sS'exercised_stock_options_fill0'
p1843
I281073
sg12
I00
sg13
g6
sg14
S'vicki.sharp@enron.com'
p1844
sg16
I422158
sg17
I1
sg18
g6
sg19
I2477
sg20
g6
sg21
I136
sg22
I2401
sS'total_stock_value_fill0'
p1845
I494136
sg24
g6
sg25
F0.001913265306122449
sg26
I600000
sS'total_payments_fill0'
p1846
I1576511
sg28
I494136
sg29
I24
sS'deferred_income_fill0'
p1847
I0
sg31
I6
sS'deferral_payments_fill0'
p1848
I187469
sS'restricted_stock_fill0'
p1849
I213063
sg34
I213063
sg35
I248146
sg36
F0.7898596938775511
sS'other_fill0'
p1850
I2401
sg38
I1576511
sS'long_term_incentive_fill0'
p1851
I422158
sS'loan_advances_fill0'
p1852
I0
sg41
I281073
sS'bonus_fill0'
p1853
I600000
sS'director_fees_fill0'
p1854
I0
ssS'JAEDICKE ROBERT'
p1855
(dp1856
g3
g6
sg4
Fnan
sg5
g6
sS'restricted_stock_deferred_fill0'
p1857
I-44093
sS'expenses_fill0'
p1858
I0
sg9
g6
sS'salary_fill0'
p1859
I0
sS'exercised_stock_options_fill0'
p1860
I431750
sg12
I00
sg13
I-25000
sg14
g6
sg16
g6
sg17
I0
sg18
I-44093
sg19
g6
sg20
g6
sg21
g6
sg22
g6
sS'total_stock_value_fill0'
p1861
I431750
sg24
I108750
sg25
Fnan
sg26
g6
sS'total_payments_fill0'
p1862
I83750
sg28
I431750
sg29
g6
sS'deferred_income_fill0'
p1863
I-25000
sg31
g6
sS'deferral_payments_fill0'
p1864
I0
sS'restricted_stock_fill0'
p1865
I44093
sg34
I44093
sg35
g6
sg36
Fnan
sS'other_fill0'
p1866
I0
sg38
I83750
sS'long_term_incentive_fill0'
p1867
I0
sS'loan_advances_fill0'
p1868
I0
sg41
I431750
sS'bonus_fill0'
p1869
I0
sS'director_fees_fill0'
p1870
I108750
ssS'WINOKUR JR. HERBERT S'
p1871
(dp1872
g3
g6
sg4
Fnan
sg5
g6
sS'restricted_stock_deferred_fill0'
p1873
I0
sS'expenses_fill0'
p1874
I1413
sg9
I1413
sS'salary_fill0'
p1875
I0
sS'exercised_stock_options_fill0'
p1876
I0
sg12
I00
sg13
I-25000
sg14
g6
sg16
g6
sg17
I0
sg18
g6
sg19
g6
sg20
g6
sg21
g6
sg22
g6
sS'total_stock_value_fill0'
p1877
I0
sg24
I108579
sg25
Fnan
sg26
g6
sS'total_payments_fill0'
p1878
I84992
sg28
g6
sg29
g6
sS'deferred_income_fill0'
p1879
I-25000
sg31
g6
sS'deferral_payments_fill0'
p1880
I0
sS'restricted_stock_fill0'
p1881
I0
sg34
g6
sg35
g6
sg36
Fnan
sS'other_fill0'
p1882
I0
sg38
I84992
sS'long_term_incentive_fill0'
p1883
I0
sS'loan_advances_fill0'
p1884
I0
sg41
g6
sS'bonus_fill0'
p1885
I0
sS'director_fees_fill0'
p1886
I108579
ssS'BROWN MICHAEL'
p1887
(dp1888
g3
I1486
sg4
F0.3170731707317073
sg5
g6
sS'restricted_stock_deferred_fill0'
p1889
I0
sS'expenses_fill0'
p1890
I49288
sg9
I49288
sS'salary_fill0'
p1891
I0
sS'exercised_stock_options_fill0'
p1892
I0
sg12
I00
sg13
g6
sg14
S'michael.brown@enron.com'
p1893
sg16
g6
sg17
I1
sg18
g6
sg19
I761
sg20
g6
sg21
I41
sg22
g6
sS'total_stock_value_fill0'
p1894
I0
sg24
g6
sg25
F0.0006729475100942127
sg26
g6
sS'total_payments_fill0'
p1895
I49288
sg28
g6
sg29
I13
sS'deferred_income_fill0'
p1896
I0
sg31
I1
sS'deferral_payments_fill0'
p1897
I0
sS'restricted_stock_fill0'
p1898
I0
sg34
g6
sg35
g6
sg36
F0.5121130551816958
sS'other_fill0'
p1899
I0
sg38
I49288
sS'long_term_incentive_fill0'
p1900
I0
sS'loan_advances_fill0'
p1901
I0
sg41
g6
sS'bonus_fill0'
p1902
I0
sS'director_fees_fill0'
p1903
I0
ssS'BADUM JAMES P'
p1904
(dp1905
g3
g6
sg4
Fnan
sg5
I178980
sS'restricted_stock_deferred_fill0'
p1906
I0
sS'expenses_fill0'
p1907
I3486
sg9
I3486
sS'salary_fill0'
p1908
I0
sS'exercised_stock_options_fill0'
p1909
I257817
sg12
I00
sg13
g6
sg14
g6
sg16
g6
sg17
I0
sg18
g6
sg19
g6
sg20
g6
sg21
g6
sg22
g6
sS'total_stock_value_fill0'
p1910
I257817
sg24
g6
sg25
Fnan
sg26
g6
sS'total_payments_fill0'
p1911
I182466
sg28
I257817
sg29
g6
sS'deferred_income_fill0'
p1912
I0
sg31
g6
sS'deferral_payments_fill0'
p1913
I178980
sS'restricted_stock_fill0'
p1914
I0
sg34
g6
sg35
g6
sg36
Fnan
sS'other_fill0'
p1915
I0
sg38
I182466
sS'long_term_incentive_fill0'
p1916
I0
sS'loan_advances_fill0'
p1917
I0
sg41
I257817
sS'bonus_fill0'
p1918
I0
sS'director_fees_fill0'
p1919
I0
ssS'HUGHES JAMES A'
p1920
(dp1921
g3
I719
sg4
F1.0294117647058822
sg5
g6
sS'restricted_stock_deferred_fill0'
p1922
I0
sS'expenses_fill0'
p1923
I0
sg9
g6
sS'salary_fill0'
p1924
I0
sS'exercised_stock_options_fill0'
p1925
I754966
sg12
I00
sg13
g6
sg14
S'james.hughes@enron.com'
p1926
sg16
g6
sg17
I1
sg18
g6
sg19
I589
sg20
g6
sg21
I34
sg22
g6
sS'total_stock_value_fill0'
p1927
I1118394
sg24
g6
sg25
F0.006954102920723227
sg26
g6
sS'total_payments_fill0'
p1928
I0
sg28
I1118394
sg29
I35
sS'deferred_income_fill0'
p1929
I0
sg31
I5
sS'deferral_payments_fill0'
p1930
I0
sS'restricted_stock_fill0'
p1931
I363428
sg34
I363428
sg35
g6
sg36
F0.8191933240611962
sS'other_fill0'
p1932
I0
sg38
g6
sS'long_term_incentive_fill0'
p1933
I0
sS'loan_advances_fill0'
p1934
I0
sg41
I754966
sS'bonus_fill0'
p1935
I0
sS'director_fees_fill0'
p1936
I0
ssS'REYNOLDS LAWRENCE'
p1937
(dp1938
g3
g6
sg4
Fnan
sg5
I51365
sS'restricted_stock_deferred_fill0'
p1939
I-140264
sS'expenses_fill0'
p1940
I8409
sg9
I8409
sS'salary_fill0'
p1941
I76399
sS'exercised_stock_options_fill0'
p1942
I4160672
sg12
I00
sg13
I-200000
sg14
g6
sg16
I156250
sg17
I0
sg18
I-140264
sg19
g6
sg20
g6
sg21
g6
sg22
I202052
sS'total_stock_value_fill0'
p1943
I4221891
sg24
g6
sg25
Fnan
sg26
I100000
sS'total_payments_fill0'
p1944
I394475
sg28
I4221891
sg29
g6
sS'deferred_income_fill0'
p1945
I-200000
sg31
g6
sS'deferral_payments_fill0'
p1946
I51365
sS'restricted_stock_fill0'
p1947
I201483
sg34
I201483
sg35
I76399
sg36
Fnan
sS'other_fill0'
p1948
I202052
sg38
I394475
sS'long_term_incentive_fill0'
p1949
I156250
sS'loan_advances_fill0'
p1950
I0
sg41
I4160672
sS'bonus_fill0'
p1951
I100000
sS'director_fees_fill0'
p1952
I0
ssS'DIMICHELE RICHARD G'
p1953
(dp1954
g3
g6
sg4
Fnan
sg5
g6
sS'restricted_stock_deferred_fill0'
p1955
I0
sS'expenses_fill0'
p1956
I35812
sg9
I35812
sS'salary_fill0'
p1957
I262788
sS'exercised_stock_options_fill0'
p1958
I8191755
sg12
I00
sg13
g6
sg14
S'richard.dimichele@enron.com'
p1959
sg16
I694862
sg17
I0
sg18
g6
sg19
g6
sg20
g6
sg21
g6
sg22
I374689
sS'total_stock_value_fill0'
p1960
I8317782
sg24
g6
sg25
Fnan
sg26
I1000000
sS'total_payments_fill0'
p1961
I2368151
sg28
I8317782
sg29
g6
sS'deferred_income_fill0'
p1962
I0
sg31
g6
sS'deferral_payments_fill0'
p1963
I0
sS'restricted_stock_fill0'
p1964
I126027
sg34
I126027
sg35
I262788
sg36
Fnan
sS'other_fill0'
p1965
I374689
sg38
I2368151
sS'long_term_incentive_fill0'
p1966
I694862
sS'loan_advances_fill0'
p1967
I0
sg41
I8191755
sS'bonus_fill0'
p1968
I1000000
sS'director_fees_fill0'
p1969
I0
ssS'BHATNAGAR SANJAY'
p1970
(dp1971
g3
I523
sg4
F0.0
sg5
g6
sS'restricted_stock_deferred_fill0'
p1972
I15456290
sS'expenses_fill0'
p1973
I0
sg9
g6
sS'salary_fill0'
p1974
I0
sS'exercised_stock_options_fill0'
p1975
I2604490
sg12
I00
sg13
g6
sg14
S'sanjay.bhatnagar@enron.com'
p1976
sg16
g6
sg17
I1
sg18
I15456290
sg19
I463
sg20
g6
sg21
I29
sg22
I137864
sS'total_stock_value_fill0'
p1977
I0
sg24
I137864
sg25
F0.0019120458891013384
sg26
g6
sS'total_payments_fill0'
p1978
I15456290
sS'total_stock_value'
p1979
S'NaN'
p1980
sg29
I0
sS'deferred_income_fill0'
p1981
I0
sg31
I1
sS'deferral_payments_fill0'
p1982
I0
sS'restricted_stock_fill0'
p1983
I-2604490
sg34
I-2604490
sg35
g6
sg36
F0.8852772466539197
sS'other_fill0'
p1984
I137864
sg38
I15456290
sS'long_term_incentive_fill0'
p1985
I0
sS'loan_advances_fill0'
p1986
I0
sg41
I2604490
sS'bonus_fill0'
p1987
I0
sS'director_fees_fill0'
p1988
I137864
ssS'CARTER REBECCA C'
p1989
(dp1990
g3
I312
sg4
F1.9333333333333333
sg5
g6
sS'restricted_stock_deferred_fill0'
p1991
I-307301
sS'expenses_fill0'
p1992
I0
sg9
g6
sS'salary_fill0'
p1993
I261809
sS'exercised_stock_options_fill0'
p1994
I0
sg12
I00
sg13
I-159792
sg14
S'rebecca.carter@enron.com'
p1995
sg16
I75000
sg17
I1
sg18
I-307301
sg19
I196
sg20
g6
sg21
I15
sg22
I540
sS'total_stock_value_fill0'
p1996
I0
sg24
g6
sg25
F0.022435897435897436
sg26
I300000
sS'total_payments_fill0'
p1997
I477557
sg28
g6
sg29
I29
sS'deferred_income_fill0'
p1998
I-159792
sg31
I7
sS'deferral_payments_fill0'
p1999
I0
sS'restricted_stock_fill0'
p2000
I307301
sg34
I307301
sg35
I261809
sg36
F0.6282051282051282
sS'other_fill0'
p2001
I540
sg38
I477557
sS'long_term_incentive_fill0'
p2002
I75000
sS'loan_advances_fill0'
p2003
I0
sg41
g6
sS'bonus_fill0'
p2004
I300000
sS'director_fees_fill0'
p2005
I0
ssS'BUCHANAN HAROLD G'
p2006
(dp2007
g3
I1088
sg4
F0.0
sg5
g6
sS'restricted_stock_deferred_fill0'
p2008
I0
sS'expenses_fill0'
p2009
I600
sg9
I600
sS'salary_fill0'
p2010
I248017
sS'exercised_stock_options_fill0'
p2011
I825464
sg12
I00
sg13
g6
sg14
S'john.buchanan@enron.com'
p2012
sg16
I304805
sg17
I1
sg18
g6
sg19
I23
sg20
g6
sg21
I125
sg22
I1215
sS'total_stock_value_fill0'
p2013
I1014505
sg24
g6
sg25
F0.0
sg26
I500000
sS'total_payments_fill0'
p2014
I1054637
sg28
I1014505
sg29
I0
sS'deferred_income_fill0'
p2015
I0
sg31
I0
sS'deferral_payments_fill0'
p2016
I0
sS'restricted_stock_fill0'
p2017
I189041
sg34
I189041
sg35
I248017
sg36
F0.021139705882352942
sS'other_fill0'
p2018
I1215
sg38
I1054637
sS'long_term_incentive_fill0'
p2019
I304805
sS'loan_advances_fill0'
p2020
I0
sg41
I825464
sS'bonus_fill0'
p2021
I500000
sS'director_fees_fill0'
p2022
I0
ssS'YEAP SOON'
p2023
(dp2024
g3
g6
sg4
Fnan
sg5
g6
sS'restricted_stock_deferred_fill0'
p2025
I0
sS'expenses_fill0'
p2026
I55097
sg9
I55097
sS'salary_fill0'
p2027
I0
sS'exercised_stock_options_fill0'
p2028
I192758
sg12
I00
sg13
g6
sg14
g6
sg16
g6
sg17
I0
sg18
g6
sg19
g6
sg20
g6
sg21
g6
sg22
g6
sS'total_stock_value_fill0'
p2029
I192758
sg24
g6
sg25
Fnan
sg26
g6
sS'total_payments_fill0'
p2030
I55097
sg28
I192758
sg29
g6
sS'deferred_income_fill0'
p2031
I0
sg31
g6
sS'deferral_payments_fill0'
p2032
I0
sS'restricted_stock_fill0'
p2033
I0
sg34
g6
sg35
g6
sg36
Fnan
sS'other_fill0'
p2034
I0
sg38
I55097
sS'long_term_incentive_fill0'
p2035
I0
sS'loan_advances_fill0'
p2036
I0
sg41
I192758
sS'bonus_fill0'
p2037
I0
sS'director_fees_fill0'
p2038
I0
ssS'MURRAY JULIA H'
p2039
(dp2040
g3
I2192
sg4
F0.24444444444444444
sg5
g6
sS'restricted_stock_deferred_fill0'
p2041
I0
sS'expenses_fill0'
p2042
I57580
sg9
I57580
sS'salary_fill0'
p2043
I229284
sS'exercised_stock_options_fill0'
p2044
I400478
sg12
I00
sg13
g6
sg14
S'julia.murray@enron.com'
p2045
sg16
I125000
sg17
I1
sg18
g6
sg19
I395
sg20
g6
sg21
I45
sg22
I330
sS'total_stock_value_fill0'
p2046
I597461
sg24
g6
sg25
F0.0009124087591240876
sg26
I400000
sS'total_payments_fill0'
p2047
I812194
sg28
I597461
sg29
I11
sS'deferred_income_fill0'
p2048
I0
sg31
I2
sS'deferral_payments_fill0'
p2049
I0
sS'restricted_stock_fill0'
p2050
I196983
sg34
I196983
sg35
I229284
sg36
F0.1802007299270073
sS'other_fill0'
p2051
I330
sg38
I812194
sS'long_term_incentive_fill0'
p2052
I125000
sS'loan_advances_fill0'
p2053
I0
sg41
I400478
sS'bonus_fill0'
p2054
I400000
sS'director_fees_fill0'
p2055
I0
ssS'GARLAND C KEVIN'
p2056
(dp2057
g3
I209
sg4
F0.22727272727272727
sg5
g6
sS'restricted_stock_deferred_fill0'
p2058
I0
sS'expenses_fill0'
p2059
I48405
sg9
I48405
sS'salary_fill0'
p2060
I231946
sS'exercised_stock_options_fill0'
p2061
I636246
sg12
I00
sg13
g6
sg14
S'kevin.garland@enron.com'
p2062
sg16
I375304
sg17
I1
sg18
g6
sg19
I178
sg20
g6
sg21
I44
sg22
I60814
sS'total_stock_value_fill0'
p2063
I896153
sg24
g6
sg25
F0.1291866028708134
sg26
I850000
sS'total_payments_fill0'
p2064
I1566469
sg28
I896153
sg29
I10
sS'deferred_income_fill0'
p2065
I0
sg31
I27
sS'deferral_payments_fill0'
p2066
I0
sS'restricted_stock_fill0'
p2067
I259907
sg34
I259907
sg35
I231946
sg36
F0.8516746411483254
sS'other_fill0'
p2068
I60814
sg38
I1566469
sS'long_term_incentive_fill0'
p2069
I375304
sS'loan_advances_fill0'
p2070
I0
sg41
I636246
sS'bonus_fill0'
p2071
I850000
sS'director_fees_fill0'
p2072
I0
ssS'DODSON KEITH'
p2073
(dp2074
g3
I176
sg4
F0.7142857142857143
sg5
g6
sS'restricted_stock_deferred_fill0'
p2075
I0
sS'expenses_fill0'
p2076
I28164
sg9
I28164
sS'salary_fill0'
p2077
I221003
sS'exercised_stock_options_fill0'
p2078
I0
sg12
I00
sg13
g6
sg14
S'keith.dodson@enron.com'
p2079
sg16
g6
sg17
I1
sg18
g6
sg19
I114
sg20
g6
sg21
I14
sg22
I774
sS'total_stock_value_fill0'
p2080
I0
sg24
g6
sg25
F0.017045454545454544
sg26
I70000
sS'total_payments_fill0'
p2081
I319941
sg28
g6
sg29
I10
sS'deferred_income_fill0'
p2082
I0
sg31
I3
sS'deferral_payments_fill0'
p2083
I0
sS'restricted_stock_fill0'
p2084
I0
sg34
g6
sg35
I221003
sg36
F0.6477272727272727
sS'other_fill0'
p2085
I774
sg38
I319941
sS'long_term_incentive_fill0'
p2086
I0
sS'loan_advances_fill0'
p2087
I0
sg41
g6
sS'bonus_fill0'
p2088
I70000
sS'director_fees_fill0'
p2089
I0
ssS'YEAGER F SCOTT'
p2090
(dp2091
g3
g6
sg4
Fnan
sg5
g6
sS'restricted_stock_deferred_fill0'
p2092
I0
sS'expenses_fill0'
p2093
I53947
sg9
I53947
sS'salary_fill0'
p2094
I158403
sS'exercised_stock_options_fill0'
p2095
I8308552
sg12
I01
sg13
g6
sg14
S'scott.yeager@enron.com'
p2096
sg16
g6
sg17
I0
sg18
g6
sg19
g6
sg20
g6
sg21
g6
sg22
I147950
sS'total_stock_value_fill0'
p2097
I11884758
sg24
g6
sg25
Fnan
sg26
g6
sS'total_payments_fill0'
p2098
I360300
sg28
I11884758
sg29
g6
sS'deferred_income_fill0'
p2099
I0
sg31
g6
sS'deferral_payments_fill0'
p2100
I0
sS'restricted_stock_fill0'
p2101
I3576206
sg34
I3576206
sg35
I158403
sg36
Fnan
sS'other_fill0'
p2102
I147950
sg38
I360300
sS'long_term_incentive_fill0'
p2103
I0
sS'loan_advances_fill0'
p2104
I0
sg41
I8308552
sS'bonus_fill0'
p2105
I0
sS'director_fees_fill0'
p2106
I0
ssS'HIRKO JOSEPH'
p2107
(dp2108
g3
g6
sg4
Fnan
sg5
I10259
sS'restricted_stock_deferred_fill0'
p2109
I0
sS'expenses_fill0'
p2110
I77978
sg9
I77978
sS'salary_fill0'
p2111
I0
sS'exercised_stock_options_fill0'
p2112
I30766064
sg12
I01
sg13
g6
sg14
S'joe.hirko@enron.com'
p2113
sg16
g6
sg17
I0
sg18
g6
sg19
g6
sg20
g6
sg21
g6
sg22
I2856
sS'total_stock_value_fill0'
p2114
I30766064
sg24
g6
sg25
Fnan
sg26
g6
sS'total_payments_fill0'
p2115
I91093
sg28
I30766064
sg29
g6
sS'deferred_income_fill0'
p2116
I0
sg31
g6
sS'deferral_payments_fill0'
p2117
I10259
sS'restricted_stock_fill0'
p2118
I0
sg34
g6
sg35
g6
sg36
Fnan
sS'other_fill0'
p2119
I2856
sg38
I91093
sS'long_term_incentive_fill0'
p2120
I0
sS'loan_advances_fill0'
p2121
I0
sg41
I30766064
sS'bonus_fill0'
p2122
I0
sS'director_fees_fill0'
p2123
I0
ssS'DIETRICH JANET R'
p2124
(dp2125
g3
I2572
sg4
F4.841269841269841
sg5
g6
sS'restricted_stock_deferred_fill0'
p2126
I0
sS'expenses_fill0'
p2127
I3475
sg9
I3475
sS'salary_fill0'
p2128
I250100
sS'exercised_stock_options_fill0'
p2129
I1550019
sg12
I00
sg13
g6
sg14
S'janet.dietrich@enron.com'
p2130
sg16
I556416
sg17
I1
sg18
g6
sg19
I1902
sg20
g6
sg21
I63
sg22
I473
sS'total_stock_value_fill0'
p2131
I1865087
sg24
g6
sg25
F0.005443234836702955
sg26
I600000
sS'total_payments_fill0'
p2132
I1410464
sg28
I1865087
sg29
I305
sS'deferred_income_fill0'
p2133
I0
sg31
I14
sS'deferral_payments_fill0'
p2134
I0
sS'restricted_stock_fill0'
p2135
I315068
sg34
I315068
sg35
I250100
sg36
F0.73950233281493
sS'other_fill0'
p2136
I473
sg38
I1410464
sS'long_term_incentive_fill0'
p2137
I556416
sS'loan_advances_fill0'
p2138
I0
sg41
I1550019
sS'bonus_fill0'
p2139
I600000
sS'director_fees_fill0'
p2140
I0
ssS'DERRICK JR. JAMES V'
p2141
(dp2142
g3
I2181
sg4
F0.0704070407040704
sg5
g6
sS'restricted_stock_deferred_fill0'
p2143
I-1787380
sS'expenses_fill0'
p2144
I51124
sg9
I51124
sS'salary_fill0'
p2145
I492375
sS'exercised_stock_options_fill0'
p2146
I8831913
sg12
I00
sg13
I-1284000
sg14
S'james.derrick@enron.com'
p2147
sg16
I484000
sg17
I1
sg18
I-1787380
sg19
I1401
sg20
g6
sg21
I909
sg22
I7482
sS'total_stock_value_fill0'
p2148
I8831913
sg24
g6
sg25
F0.009170105456212746
sg26
I800000
sS'total_payments_fill0'
p2149
I550981
sg28
I8831913
sg29
I64
sS'deferred_income_fill0'
p2150
I-1284000
sg31
I20
sS'deferral_payments_fill0'
p2151
I0
sS'restricted_stock_fill0'
p2152
I1787380
sg34
I1787380
sg35
I492375
sg36
F0.6423658872077029
sS'other_fill0'
p2153
I7482
sg38
I550981
sS'long_term_incentive_fill0'
p2154
I484000
sS'loan_advances_fill0'
p2155
I0
sg41
I8831913
sS'bonus_fill0'
p2156
I800000
sS'director_fees_fill0'
p2157
I0
ssS'FREVERT MARK A'
p2158
(dp2159
g3
I3275
sg4
F11.523809523809524
sg5
I6426990
sS'restricted_stock_deferred_fill0'
p2160
I0
sS'expenses_fill0'
p2161
I86987
sg9
I86987
sS'salary_fill0'
p2162
I1060932
sS'exercised_stock_options_fill0'
p2163
I10433518
sg12
I00
sg13
I-3367011
sg14
S'mark.frevert@enron.com'
p2164
sg16
I1617011
sg17
I1
sg18
g6
sg19
I2979
sg20
I2000000
sg21
I21
sg22
I7427621
sS'total_stock_value_fill0'
p2165
I14622185
sg24
g6
sg25
F0.00183206106870229
sg26
I2000000
sS'total_payments_fill0'
p2166
I17252530
sg28
I14622185
sg29
I242
sS'deferred_income_fill0'
p2167
I-3367011
sg31
I6
sS'deferral_payments_fill0'
p2168
I6426990
sS'restricted_stock_fill0'
p2169
I4188667
sg34
I4188667
sg35
I1060932
sg36
F0.909618320610687
sS'other_fill0'
p2170
I7427621
sg38
I17252530
sS'long_term_incentive_fill0'
p2171
I1617011
sS'loan_advances_fill0'
p2172
I2000000
sg41
I10433518
sS'bonus_fill0'
p2173
I2000000
sS'director_fees_fill0'
p2174
I0
ssS'PAI LOU L'
p2175
(dp2176
g3
g6
sg4
Fnan
sg5
g6
sS'restricted_stock_deferred_fill0'
p2177
I0
sS'expenses_fill0'
p2178
I32047
sg9
I32047
sS'salary_fill0'
p2179
I261879
sS'exercised_stock_options_fill0'
p2180
I15364167
sg12
I00
sg13
g6
sg14
S'lou.pai@enron.com'
p2181
sg16
g6
sg17
I0
sg18
g6
sg19
g6
sg20
g6
sg21
g6
sg22
I1829457
sS'total_stock_value_fill0'
p2182
I23817930
sg24
g6
sg25
Fnan
sg26
I1000000
sS'total_payments_fill0'
p2183
I3123383
sg28
I23817930
sg29
g6
sS'deferred_income_fill0'
p2184
I0
sg31
g6
sS'deferral_payments_fill0'
p2185
I0
sS'restricted_stock_fill0'
p2186
I8453763
sg34
I8453763
sg35
I261879
sg36
Fnan
sS'other_fill0'
p2187
I1829457
sg38
I3123383
sS'long_term_incentive_fill0'
p2188
I0
sS'loan_advances_fill0'
p2189
I0
sg41
I15364167
sS'bonus_fill0'
p2190
I1000000
sS'director_fees_fill0'
p2191
I0
ssS'BAY FRANKLIN R'
p2192
(dp2193
g3
g6
sg4
Fnan
sg5
I260455
sS'restricted_stock_deferred_fill0'
p2194
I-82782
sS'expenses_fill0'
p2195
I129142
sg9
I129142
sS'salary_fill0'
p2196
I239671
sS'exercised_stock_options_fill0'
p2197
I0
sg12
I00
sg13
I-201641
sg14
S'frank.bay@enron.com'
p2198
sg16
g6
sg17
I0
sg18
I-82782
sg19
g6
sg20
g6
sg21
g6
sg22
I69
sS'total_stock_value_fill0'
p2199
I63014
sg24
g6
sg25
Fnan
sg26
I400000
sS'total_payments_fill0'
p2200
I827696
sg28
I63014
sg29
g6
sS'deferred_income_fill0'
p2201
I-201641
sg31
g6
sS'deferral_payments_fill0'
p2202
I260455
sS'restricted_stock_fill0'
p2203
I145796
sg34
I145796
sg35
I239671
sg36
Fnan
sS'other_fill0'
p2204
I69
sg38
I827696
sS'long_term_incentive_fill0'
p2205
I0
sS'loan_advances_fill0'
p2206
I0
sg41
g6
sS'bonus_fill0'
p2207
I400000
sS'director_fees_fill0'
p2208
I0
ssS'HAYSLETT RODERICK J'
p2209
(dp2210
g3
I2649
sg4
F0.03298774740810556
sg5
g6
sS'restricted_stock_deferred_fill0'
p2211
I0
sS'expenses_fill0'
p2212
I0
sg9
g6
sS'salary_fill0'
p2213
I0
sS'exercised_stock_options_fill0'
p2214
I0
sg12
I00
sg13
g6
sg14
S'rod.hayslett@enron.com'
p2215
sg16
g6
sg17
I1
sg18
g6
sg19
I571
sg20
g6
sg21
I1061
sg22
g6
sS'total_stock_value_fill0'
p2216
I346663
sg24
g6
sg25
F0.014345035862589657
sg26
g6
sS'total_payments_fill0'
p2217
I0
sg28
I346663
sg29
I35
sS'deferred_income_fill0'
p2218
I0
sg31
I38
sS'deferral_payments_fill0'
p2219
I0
sS'restricted_stock_fill0'
p2220
I346663
sg34
I346663
sg35
g6
sg36
F0.21555303888259722
sS'other_fill0'
p2221
I0
sg38
g6
sS'long_term_incentive_fill0'
p2222
I0
sS'loan_advances_fill0'
p2223
I0
sg41
g6
sS'bonus_fill0'
p2224
I0
sS'director_fees_fill0'
p2225
I0
ssS'FUGH JOHN L'
p2226
(dp2227
g3
g6
sg4
Fnan
sg5
I50591
sS'restricted_stock_deferred_fill0'
p2228
I0
sS'expenses_fill0'
p2229
I0
sg9
g6
sS'salary_fill0'
p2230
I0
sS'exercised_stock_options_fill0'
p2231
I176378
sg12
I00
sg13
g6
sg14
g6
sg16
g6
sg17
I0
sg18
g6
sg19
g6
sg20
g6
sg21
g6
sg22
g6
sS'total_stock_value_fill0'
p2232
I176378
sg24
g6
sg25
Fnan
sg26
g6
sS'total_payments_fill0'
p2233
I50591
sg28
I176378
sg29
g6
sS'deferred_income_fill0'
p2234
I0
sg31
g6
sS'deferral_payments_fill0'
p2235
I50591
sS'restricted_stock_fill0'
p2236
I0
sg34
g6
sg35
g6
sg36
Fnan
sS'other_fill0'
p2237
I0
sg38
I50591
sS'long_term_incentive_fill0'
p2238
I0
sS'loan_advances_fill0'
p2239
I0
sg41
I176378
sS'bonus_fill0'
p2240
I0
sS'director_fees_fill0'
p2241
I0
ssS'FALLON JAMES B'
p2242
(dp2243
g3
I1755
sg4
F0.56
sg5
g6
sS'restricted_stock_deferred_fill0'
p2244
I0
sS'expenses_fill0'
p2245
I95924
sg9
I95924
sS'salary_fill0'
p2246
I304588
sS'exercised_stock_options_fill0'
p2247
I940257
sg12
I00
sg13
g6
sg14
S'jim.fallon@enron.com'
p2248
sg16
I374347
sg17
I1
sg18
g6
sg19
I1604
sg20
g6
sg21
I75
sg22
I401481
sS'total_stock_value_fill0'
p2249
I2332399
sg24
g6
sg25
F0.021082621082621083
sg26
I2500000
sS'total_payments_fill0'
p2250
I3676340
sg28
I2332399
sg29
I42
sS'deferred_income_fill0'
p2251
I0
sg31
I37
sS'deferral_payments_fill0'
p2252
I0
sS'restricted_stock_fill0'
p2253
I1392142
sg34
I1392142
sg35
I304588
sg36
F0.913960113960114
sS'other_fill0'
p2254
I401481
sg38
I3676340
sS'long_term_incentive_fill0'
p2255
I374347
sS'loan_advances_fill0'
p2256
I0
sg41
I940257
sS'bonus_fill0'
p2257
I2500000
sS'director_fees_fill0'
p2258
I0
ssS'KOENIG MARK E'
p2259
(dp2260
g3
I2374
sg4
F0.8688524590163934
sg5
g6
sS'restricted_stock_deferred_fill0'
p2261
I0
sS'expenses_fill0'
p2262
I127017
sg9
I127017
sS'salary_fill0'
p2263
I309946
sS'exercised_stock_options_fill0'
p2264
I671737
sg12
I01
sg13
g6
sg14
S'mark.koenig@enron.com'
p2265
sg16
I300000
sg17
I1
sg18
g6
sg19
I2271
sg20
g6
sg21
I61
sg22
I150458
sS'total_stock_value_fill0'
p2266
I1920055
sg24
g6
sg25
F0.006318449873631003
sg26
I700000
sS'total_payments_fill0'
p2267
I1587421
sg28
I1920055
sg29
I53
sS'deferred_income_fill0'
p2268
I0
sg31
I15
sS'deferral_payments_fill0'
p2269
I0
sS'restricted_stock_fill0'
p2270
I1248318
sg34
I1248318
sg35
I309946
sg36
F0.9566133108677338
sS'other_fill0'
p2271
I150458
sg38
I1587421
sS'long_term_incentive_fill0'
p2272
I300000
sS'loan_advances_fill0'
p2273
I0
sg41
I671737
sS'bonus_fill0'
p2274
I700000
sS'director_fees_fill0'
p2275
I0
ssS'SAVAGE FRANK'
p2276
(dp2277
g3
g6
sg4
Fnan
sg5
g6
sS'restricted_stock_deferred_fill0'
p2278
I0
sS'expenses_fill0'
p2279
I0
sg9
g6
sS'salary_fill0'
p2280
I0
sS'exercised_stock_options_fill0'
p2281
I0
sg12
I00
sg13
I-121284
sg14
g6
sg16
g6
sg17
I0
sg18
g6
sg19
g6
sg20
g6
sg21
g6
sg22
g6
sS'total_stock_value_fill0'
p2282
I0
sg24
I125034
sg25
Fnan
sg26
g6
sS'total_payments_fill0'
p2283
I3750
sg28
g6
sg29
g6
sS'deferred_income_fill0'
p2284
I-121284
sg31
g6
sS'deferral_payments_fill0'
p2285
I0
sS'restricted_stock_fill0'
p2286
I0
sg34
g6
sg35
g6
sg36
Fnan
sS'other_fill0'
p2287
I0
sg38
I3750
sS'long_term_incentive_fill0'
p2288
I0
sS'loan_advances_fill0'
p2289
I0
sg41
g6
sS'bonus_fill0'
p2290
I0
sS'director_fees_fill0'
p2291
I125034
ssS'IZZO LAWRENCE L'
p2292
(dp2293
g3
I496
sg4
F1.4736842105263157
sg5
g6
sS'restricted_stock_deferred_fill0'
p2294
I0
sS'expenses_fill0'
p2295
I28093
sg9
I28093
sS'salary_fill0'
p2296
I85274
sS'exercised_stock_options_fill0'
p2297
I2165172
sg12
I00
sg13
g6
sg14
S'larry.izzo@enron.com'
p2298
sg16
I312500
sg17
I1
sg18
g6
sg19
I437
sg20
g6
sg21
I19
sg22
I1553729
sS'total_stock_value_fill0'
p2299
I5819980
sg24
g6
sg25
F0.010080645161290322
sg26
g6
sS'total_payments_fill0'
p2300
I1979596
sg28
I5819980
sg29
I28
sS'deferred_income_fill0'
p2301
I0
sg31
I5
sS'deferral_payments_fill0'
p2302
I0
sS'restricted_stock_fill0'
p2303
I3654808
sg34
I3654808
sg35
I85274
sg36
F0.8810483870967742
sS'other_fill0'
p2304
I1553729
sg38
I1979596
sS'long_term_incentive_fill0'
p2305
I312500
sS'loan_advances_fill0'
p2306
I0
sg41
I2165172
sS'bonus_fill0'
p2307
I0
sS'director_fees_fill0'
p2308
I0
ssS'TILNEY ELIZABETH A'
p2309
(dp2310
g3
I460
sg4
F0.5263157894736842
sg5
g6
sS'restricted_stock_deferred_fill0'
p2311
I0
sS'expenses_fill0'
p2312
I0
sg9
g6
sS'salary_fill0'
p2313
I247338
sS'exercised_stock_options_fill0'
p2314
I591250
sg12
I00
sg13
I-575000
sg14
S'elizabeth.tilney@enron.com'
p2315
sg16
I275000
sg17
I1
sg18
g6
sg19
I379
sg20
g6
sg21
I19
sg22
I152055
sS'total_stock_value_fill0'
p2316
I1168042
sg24
g6
sg25
F0.02391304347826087
sg26
I300000
sS'total_payments_fill0'
p2317
I399393
sg28
I1168042
sg29
I10
sS'deferred_income_fill0'
p2318
I-575000
sg31
I11
sS'deferral_payments_fill0'
p2319
I0
sS'restricted_stock_fill0'
p2320
I576792
sg34
I576792
sg35
I247338
sg36
F0.8239130434782609
sS'other_fill0'
p2321
I152055
sg38
I399393
sS'long_term_incentive_fill0'
p2322
I275000
sS'loan_advances_fill0'
p2323
I0
sg41
I591250
sS'bonus_fill0'
p2324
I300000
sS'director_fees_fill0'
p2325
I0
ssS'MARTIN AMANDA K'
p2326
(dp2327
g3
I1522
sg4
F0.034782608695652174
sg5
I85430
sS'restricted_stock_deferred_fill0'
p2328
I0
sS'expenses_fill0'
p2329
I8211
sg9
I8211
sS'salary_fill0'
p2330
I349487
sS'exercised_stock_options_fill0'
p2331
I2070306
sg12
I00
sg13
g6
sg14
S'a..martin@enron.com'
p2332
sg16
I5145434
sg17
I1
sg18
g6
sg19
I477
sg20
g6
sg21
I230
sg22
I2818454
sS'total_stock_value_fill0'
p2333
I2070306
sg24
g6
sg25
F0.0
sg26
g6
sS'total_payments_fill0'
p2334
I8407016
sg28
I2070306
sg29
I8
sS'deferred_income_fill0'
p2335
I0
sg31
I0
sS'deferral_payments_fill0'
p2336
I85430
sS'restricted_stock_fill0'
p2337
I0
sg34
g6
sg35
I349487
sg36
F0.31340341655716164
sS'other_fill0'
p2338
I2818454
sg38
I8407016
sS'long_term_incentive_fill0'
p2339
I5145434
sS'loan_advances_fill0'
p2340
I0
sg41
I2070306
sS'bonus_fill0'
p2341
I0
sS'director_fees_fill0'
p2342
I0
ssS'BUY RICHARD B'
p2343
(dp2344
g3
I3523
sg4
F0.14814814814814814
sg5
I649584
sS'restricted_stock_deferred_fill0'
p2345
I0
sS'expenses_fill0'
p2346
I0
sg9
g6
sS'salary_fill0'
p2347
I330546
sS'exercised_stock_options_fill0'
p2348
I2542813
sg12
I00
sg13
I-694862
sg14
S'rick.buy@enron.com'
p2349
sg16
I769862
sg17
I1
sg18
g6
sg19
I2333
sg20
g6
sg21
I1053
sg22
I400572
sS'total_stock_value_fill0'
p2350
I3444470
sg24
g6
sg25
F0.02015327845586148
sg26
I900000
sS'total_payments_fill0'
p2351
I2355702
sg28
I3444470
sg29
I156
sS'deferred_income_fill0'
p2352
I-694862
sg31
I71
sS'deferral_payments_fill0'
p2353
I649584
sS'restricted_stock_fill0'
p2354
I901657
sg34
I901657
sg35
I330546
sg36
F0.6622196991200682
sS'other_fill0'
p2355
I400572
sg38
I2355702
sS'long_term_incentive_fill0'
p2356
I769862
sS'loan_advances_fill0'
p2357
I0
sg41
I2542813
sS'bonus_fill0'
p2358
I900000
sS'director_fees_fill0'
p2359
I0
ssS'GRAMM WENDY L'
p2360
(dp2361
g3
g6
sg4
Fnan
sg5
g6
sS'restricted_stock_deferred_fill0'
p2362
I0
sS'expenses_fill0'
p2363
I0
sg9
g6
sS'salary_fill0'
p2364
I0
sS'exercised_stock_options_fill0'
p2365
I0
sg12
I00
sg13
g6
sg14
g6
sg16
g6
sg17
I0
sg18
g6
sg19
g6
sg20
g6
sg21
g6
sg22
g6
sS'total_stock_value_fill0'
p2366
I0
sg24
I119292
sg25
Fnan
sg26
g6
sS'total_payments_fill0'
p2367
I119292
sg28
g6
sg29
g6
sS'deferred_income_fill0'
p2368
I0
sg31
g6
sS'deferral_payments_fill0'
p2369
I0
sS'restricted_stock_fill0'
p2370
I0
sg34
g6
sg35
g6
sg36
Fnan
sS'other_fill0'
p2371
I0
sg38
I119292
sS'long_term_incentive_fill0'
p2372
I0
sS'loan_advances_fill0'
p2373
I0
sg41
g6
sS'bonus_fill0'
p2374
I0
sS'director_fees_fill0'
p2375
I119292
ssS'CAUSEY RICHARD A'
p2376
(dp2377
g3
I1892
sg4
F1.183673469387755
sg5
g6
sS'restricted_stock_deferred_fill0'
p2378
I0
sS'expenses_fill0'
p2379
I30674
sg9
I30674
sS'salary_fill0'
p2380
I415189
sS'exercised_stock_options_fill0'
p2381
I0
sg12
I01
sg13
I-235000
sg14
S'richard.causey@enron.com'
p2382
sg16
I350000
sg17
I1
sg18
g6
sg19
I1585
sg20
g6
sg21
I49
sg22
I307895
sS'total_stock_value_fill0'
p2383
I2502063
sg24
g6
sg25
F0.006342494714587738
sg26
I1000000
sS'total_payments_fill0'
p2384
I1868758
sg28
I2502063
sg29
I58
sS'deferred_income_fill0'
p2385
I-235000
sg31
I12
sS'deferral_payments_fill0'
p2386
I0
sS'restricted_stock_fill0'
p2387
I2502063
sg34
I2502063
sg35
I415189
sg36
F0.837737843551797
sS'other_fill0'
p2388
I307895
sg38
I1868758
sS'long_term_incentive_fill0'
p2389
I350000
sS'loan_advances_fill0'
p2390
I0
sg41
g6
sS'bonus_fill0'
p2391
I1000000
sS'director_fees_fill0'
p2392
I0
ssS'TAYLOR MITCHELL S'
p2393
(dp2394
g3
I533
sg4
F0.0
sg5
I227449
sS'restricted_stock_deferred_fill0'
p2395
I0
sS'expenses_fill0'
p2396
I0
sg9
g6
sS'salary_fill0'
p2397
I265214
sS'exercised_stock_options_fill0'
p2398
I3181250
sg12
I00
sg13
g6
sg14
S'mitchell.taylor@enron.com'
p2399
sg16
g6
sg17
I1
sg18
g6
sg19
I300
sg20
g6
sg21
I29
sg22
g6
sS'total_stock_value_fill0'
p2400
I3745048
sg24
g6
sg25
F0.0
sg26
I600000
sS'total_payments_fill0'
p2401
I1092663
sg28
I3745048
sg29
I0
sS'deferred_income_fill0'
p2402
I0
sg31
I0
sS'deferral_payments_fill0'
p2403
I227449
sS'restricted_stock_fill0'
p2404
I563798
sg34
I563798
sg35
I265214
sg36
F0.5628517823639775
sS'other_fill0'
p2405
I0
sg38
I1092663
sS'long_term_incentive_fill0'
p2406
I0
sS'loan_advances_fill0'
p2407
I0
sg41
I3181250
sS'bonus_fill0'
p2408
I600000
sS'director_fees_fill0'
p2409
I0
ssS'DONAHUE JR JEFFREY M'
p2410
(dp2411
g3
I865
sg4
F8.545454545454545
sg5
g6
sS'restricted_stock_deferred_fill0'
p2412
I0
sS'expenses_fill0'
p2413
I96268
sg9
I96268
sS'salary_fill0'
p2414
I278601
sS'exercised_stock_options_fill0'
p2415
I765920
sg12
I00
sg13
I-300000
sg14
S'jeff.donahue@enron.com'
p2416
sg16
g6
sg17
I1
sg18
g6
sg19
I772
sg20
g6
sg21
I22
sg22
I891
sS'total_stock_value_fill0'
p2417
I1080988
sg24
g6
sg25
F0.012716763005780347
sg26
I800000
sS'total_payments_fill0'
p2418
I875760
sg28
I1080988
sg29
I188
sS'deferred_income_fill0'
p2419
I-300000
sg31
I11
sS'deferral_payments_fill0'
p2420
I0
sS'restricted_stock_fill0'
p2421
I315068
sg34
I315068
sg35
I278601
sg36
F0.892485549132948
sS'other_fill0'
p2422
I891
sg38
I875760
sS'long_term_incentive_fill0'
p2423
I0
sS'loan_advances_fill0'
p2424
I0
sg41
I765920
sS'bonus_fill0'
p2425
I800000
sS'director_fees_fill0'
p2426
I0
ssS'GLISAN JR BEN F'
p2427
(dp2428
g3
I873
sg4
F3.25
sg5
g6
sS'restricted_stock_deferred_fill0'
p2429
I0
sS'expenses_fill0'
p2430
I125978
sg9
I125978
sS'salary_fill0'
p2431
I274975
sS'exercised_stock_options_fill0'
p2432
I384728
sg12
I01
sg13
g6
sg14
S'ben.glisan@enron.com'
p2433
sg16
I71023
sg17
I1
sg18
g6
sg19
I874
sg20
g6
sg21
I16
sg22
I200308
sS'total_stock_value_fill0'
p2434
I778546
sg24
g6
sg25
F0.006872852233676976
sg26
I600000
sS'total_payments_fill0'
p2435
I1272284
sg28
I778546
sg29
I52
sS'deferred_income_fill0'
p2436
I0
sg31
I6
sS'deferral_payments_fill0'
p2437
I0
sS'restricted_stock_fill0'
p2438
I393818
sg34
I393818
sg35
I274975
sg36
F1.0011454753722795
sS'other_fill0'
p2439
I200308
sg38
I1272284
sS'long_term_incentive_fill0'
p2440
I71023
sS'loan_advances_fill0'
p2441
I0
sg41
I384728
sS'bonus_fill0'
p2442
I600000
sS'director_fees_fill0'
p2443
I0
ss.