(lp0
S'poi'
p1
aS'salary_fill0'
p2
aS'deferral_payments_fill0'
p3
aS'total_payments_fill0'
p4
aS'loan_advances_fill0'
p5
aS'bonus_fill0'
p6
aS'restricted_stock_deferred_fill0'
p7
aS'deferred_income_fill0'
p8
aS'total_stock_value_fill0'
p9
aS'expenses_fill0'
p10
aS'exercised_stock_options_fill0'
p11
aS'other_fill0'
p12
aS'long_term_incentive_fill0'
p13
aS'restricted_stock_fill0'
p14
aS'director_fees_fill0'
p15
aS'from_poi_norm'
p16
aS'to_poi_norm'
p17
aS'shared_poi_norm'
p18
aS'email_info_available'
p19
a.